(dp0
I1
I1
sI2
I2
sI3
I3
sI4
I4
sI5
I5
sI6
I6
sI7
I7
sI8
I8
sI9
I9
sI10
I10
sI11
I11
sI12
I12
sI13
I13
sI14
I14
sI15
I21
sI16
I22
sI17
I23
sI18
I24
sI19
I25
sI20
I26
sI21
I27
sI22
I28
sI23
I29
sI24
I30
sI25
I31
sI26
I32
sI27
I33
sI28
I34
sI29
I41
sI30
I42
sI31
I43
sI32
I44
sI33
I45
sI34
I46
sI35
I47
sI36
I48
sI37
I49
sI38
I50
sI39
I51
sI40
I52
sI41
I53
sI42
I54
sI43
I61
sI44
I62
sI45
I63
sI46
I64
sI47
I65
sI48
I66
sI49
I67
sI50
I68
sI51
I69
sI52
I70
sI53
I71
sI54
I72
sI55
I73
sI56
I74
sI57
I81
sI58
I82
sI59
I83
sI60
I84
sI61
I85
sI62
I86
sI63
I87
sI64
I88
sI65
I89
sI66
I90
sI67
I91
sI68
I92
sI69
I93
sI70
I94
sI71
I101
sI72
I102
sI73
I103
sI74
I104
sI75
I105
sI76
I106
sI77
I107
sI78
I108
sI79
I109
sI80
I110
sI81
I111
sI82
I112
sI83
I113
sI84
I114
sI85
I121
sI86
I122
sI87
I123
sI88
I124
sI89
I125
sI90
I126
sI91
I127
sI92
I128
sI93
I129
sI94
I130
sI95
I131
sI96
I132
sI97
I133
sI98
I134
sI99
I141
sI100
I142
sI101
I143
sI102
I144
sI103
I145
sI104
I146
sI105
I147
sI106
I148
sI107
I149
sI108
I150
sI109
I151
sI110
I152
sI111
I153
sI112
I154
sI113
I161
sI114
I162
sI115
I163
sI116
I164
sI117
I165
sI118
I166
sI119
I167
sI120
I168
sI121
I169
sI122
I170
sI123
I171
sI124
I172
sI125
I173
sI126
I174
sI127
I181
sI128
I182
sI129
I183
sI130
I184
sI131
I185
sI132
I186
sI133
I187
sI134
I188
sI135
I189
sI136
I190
sI137
I191
sI138
I192
sI139
I193
sI140
I194
sI141
I201
sI142
I202
sI143
I203
sI144
I204
sI145
I205
sI146
I206
sI147
I207
sI148
I208
sI149
I209
sI150
I210
sI151
I211
sI152
I212
sI153
I213
sI154
I214
sI155
I221
sI156
I222
sI157
I223
sI158
I224
sI159
I225
sI160
I226
sI161
I227
sI162
I228
sI163
I229
sI164
I230
sI165
I231
sI166
I232
sI167
I233
sI168
I234
sI169
I241
sI170
I242
sI171
I243
sI172
I244
sI173
I245
sI174
I246
sI175
I247
sI176
I248
sI177
I249
sI178
I250
sI179
I251
sI180
I252
sI181
I253
sI182
I254
sI183
I261
sI184
I262
sI185
I263
sI186
I264
sI187
I265
sI188
I266
sI189
I267
sI190
I268
sI191
I269
sI192
I270
sI193
I271
sI194
I272
sI195
I273
sI196
I274
sI197
I281
sI198
I282
sI199
I283
sI200
I284
sI201
I285
sI202
I286
sI203
I287
sI204
I288
sI205
I289
sI206
I290
sI207
I291
sI208
I292
sI209
I293
sI210
I294
sI211
I301
sI212
I302
sI213
I303
sI214
I304
sI215
I305
sI216
I306
sI217
I307
sI218
I308
sI219
I309
sI220
I310
sI221
I311
sI222
I312
sI223
I313
sI224
I314
sI225
I321
sI226
I322
sI227
I323
sI228
I324
sI229
I325
sI230
I326
sI231
I327
sI232
I328
sI233
I329
sI234
I330
sI235
I331
sI236
I332
sI237
I333
sI238
I334
sI239
I341
sI240
I342
sI241
I343
sI242
I344
sI243
I345
sI244
I346
sI245
I347
sI246
I348
sI247
I349
sI248
I350
sI249
I351
sI250
I352
sI251
I353
sI252
I354
sI253
I361
sI254
I362
sI255
I363
sI256
I364
sI257
I365
sI258
I366
sI259
I367
sI260
I368
sI261
I369
sI262
I370
sI263
I371
sI264
I372
sI265
I373
sI266
I374
sI267
I381
sI268
I382
sI269
I383
sI270
I384
sI271
I385
sI272
I386
sI273
I387
sI274
I388
sI275
I389
sI276
I390
sI277
I391
sI278
I392
sI279
I393
sI280
I394
sI281
I401
sI282
I402
sI283
I403
sI284
I404
sI285
I405
sI286
I406
sI287
I407
sI288
I408
sI289
I409
sI290
I410
sI291
I411
sI292
I412
sI293
I413
sI294
I414
sI295
I421
sI296
I422
sI297
I423
sI298
I424
sI299
I425
sI300
I426
sI301
I427
sI302
I428
sI303
I429
sI304
I430
sI305
I431
sI306
I432
sI307
I433
sI308
I434
sI309
I441
sI310
I442
sI311
I443
sI312
I444
sI313
I445
sI314
I446
sI315
I447
sI316
I448
sI317
I449
sI318
I450
sI319
I451
sI320
I452
sI321
I453
sI322
I454
sI323
I461
sI324
I462
sI325
I463
sI326
I464
sI327
I465
sI328
I466
sI329
I467
sI330
I468
sI331
I469
sI332
I470
sI333
I471
sI334
I472
sI335
I473
sI336
I474
sI337
I481
sI338
I482
sI339
I483
sI340
I484
sI341
I485
sI342
I486
sI343
I487
sI344
I488
sI345
I489
sI346
I490
sI347
I491
sI348
I492
sI349
I493
sI350
I494
sI351
I501
sI352
I502
sI353
I503
sI354
I504
sI355
I505
sI356
I506
sI357
I507
sI358
I508
sI359
I509
sI360
I510
sI361
I511
sI362
I512
sI363
I513
sI364
I514
sI365
I521
sI366
I522
sI367
I523
sI368
I524
sI369
I525
sI370
I526
sI371
I527
sI372
I528
sI373
I529
sI374
I530
sI375
I531
sI376
I532
sI377
I533
sI378
I534
sI379
I541
sI380
I542
sI381
I543
sI382
I544
sI383
I545
sI384
I546
sI385
I547
sI386
I548
sI387
I549
sI388
I550
sI389
I551
sI390
I552
sI391
I553
sI392
I554
sI393
I561
sI394
I562
sI395
I563
sI396
I564
sI397
I565
sI398
I566
sI399
I567
sI400
I568
sI401
I569
sI402
I570
sI403
I571
sI404
I572
sI405
I573
sI406
I574
sI407
I581
sI408
I582
sI409
I583
sI410
I584
sI411
I585
sI412
I586
sI413
I587
sI414
I588
sI415
I589
sI416
I590
sI417
I591
sI418
I592
sI419
I593
sI420
I594
sI421
I601
sI422
I602
sI423
I603
sI424
I604
sI425
I605
sI426
I606
sI427
I607
sI428
I608
sI429
I609
sI430
I610
sI431
I611
sI432
I612
sI433
I613
sI434
I614
sI435
I621
sI436
I622
sI437
I623
sI438
I624
sI439
I625
sI440
I626
sI441
I627
sI442
I628
sI443
I629
sI444
I630
sI445
I631
sI446
I632
sI447
I633
sI448
I634
sI449
I641
sI450
I642
sI451
I643
sI452
I644
sI453
I645
sI454
I646
sI455
I647
sI456
I648
sI457
I649
sI458
I650
sI459
I651
sI460
I652
sI461
I653
sI462
I654
sI463
I661
sI464
I662
sI465
I663
sI466
I664
sI467
I665
sI468
I666
sI469
I667
sI470
I668
sI471
I669
sI472
I670
sI473
I671
sI474
I672
sI475
I673
sI476
I674
sI477
I681
sI478
I682
sI479
I683
sI480
I684
sI481
I685
sI482
I686
sI483
I687
sI484
I688
sI485
I689
sI486
I690
sI487
I691
sI488
I692
sI489
I693
sI490
I694
sI491
I701
sI492
I702
sI493
I703
sI494
I704
sI495
I705
sI496
I706
sI497
I707
sI498
I708
sI499
I709
sI500
I710
sI501
I711
sI502
I712
sI503
I713
sI504
I714
sI505
I721
sI506
I722
sI507
I723
sI508
I724
sI509
I725
sI510
I726
sI511
I727
sI512
I728
sI513
I729
sI514
I730
sI515
I731
sI516
I732
sI517
I733
sI518
I734
sI519
I741
sI520
I742
sI521
I743
sI522
I744
sI523
I745
sI524
I746
sI525
I747
sI526
I748
sI527
I749
sI528
I750
sI529
I751
sI530
I752
sI531
I753
sI532
I754
sI533
I761
sI534
I762
sI535
I763
sI536
I764
sI537
I765
sI538
I766
sI539
I767
sI540
I768
sI541
I769
sI542
I770
sI543
I771
sI544
I772
sI545
I773
sI546
I774
sI547
I781
sI548
I782
sI549
I783
sI550
I784
sI551
I785
sI552
I786
sI553
I787
sI554
I788
sI555
I789
sI556
I790
sI557
I791
sI558
I792
sI559
I793
sI560
I794
sI561
I801
sI562
I802
sI563
I803
sI564
I804
sI565
I805
sI566
I806
sI567
I807
sI568
I808
sI569
I809
sI570
I810
sI571
I811
sI572
I812
sI573
I813
sI574
I814
sI575
I821
sI576
I822
sI577
I823
sI578
I824
sI579
I825
sI580
I826
sI581
I827
sI582
I828
sI583
I829
sI584
I830
sI585
I831
sI586
I832
sI587
I833
sI588
I834
sI589
I841
sI590
I842
sI591
I843
sI592
I844
sI593
I845
sI594
I846
sI595
I847
sI596
I848
sI597
I849
sI598
I850
sI599
I851
sI600
I852
sI601
I853
sI602
I854
sI603
I861
sI604
I862
sI605
I863
sI606
I864
sI607
I865
sI608
I866
sI609
I867
sI610
I868
sI611
I869
sI612
I870
sI613
I871
sI614
I872
sI615
I873
sI616
I874
sI617
I881
sI618
I882
sI619
I883
sI620
I884
sI621
I885
sI622
I886
sI623
I887
sI624
I888
sI625
I889
sI626
I890
sI627
I891
sI628
I892
sI629
I893
sI630
I894
sI631
I901
sI632
I902
sI633
I903
sI634
I904
sI635
I905
sI636
I906
sI637
I907
sI638
I908
sI639
I909
sI640
I910
sI641
I911
sI642
I912
sI643
I913
sI644
I914
sI645
I921
sI646
I922
sI647
I923
sI648
I924
sI649
I925
sI650
I926
sI651
I927
sI652
I928
sI653
I929
sI654
I930
sI655
I931
sI656
I932
sI657
I933
sI658
I934
sI659
I941
sI660
I942
sI661
I943
sI662
I944
sI663
I945
sI664
I946
sI665
I947
sI666
I948
sI667
I949
sI668
I950
sI669
I951
sI670
I952
sI671
I953
sI672
I954
sI673
I961
sI674
I962
sI675
I963
sI676
I964
sI677
I965
sI678
I966
sI679
I967
sI680
I968
sI681
I969
sI682
I970
sI683
I971
sI684
I972
sI685
I973
sI686
I974
sI687
I981
sI688
I982
sI689
I983
sI690
I984
sI691
I985
sI692
I986
sI693
I987
sI694
I988
sI695
I989
sI696
I990
sI697
I991
sI698
I992
sI699
I993
sI700
I994
sI701
I1001
sI702
I1002
sI703
I1003
sI704
I1004
sI705
I1005
sI706
I1006
sI707
I1007
sI708
I1008
sI709
I1009
sI710
I1010
sI711
I1011
sI712
I1012
sI713
I1013
sI714
I1014
sI715
I1021
sI716
I1022
sI717
I1023
sI718
I1024
sI719
I1025
sI720
I1026
sI721
I1027
sI722
I1028
sI723
I1029
sI724
I1030
sI725
I1031
sI726
I1032
sI727
I1033
sI728
I1034
sI729
I1041
sI730
I1042
sI731
I1043
sI732
I1044
sI733
I1045
sI734
I1046
sI735
I1047
sI736
I1048
sI737
I1049
sI738
I1050
sI739
I1051
sI740
I1052
sI741
I1053
sI742
I1054
sI743
I1061
sI744
I1062
sI745
I1063
sI746
I1064
sI747
I1065
sI748
I1066
sI749
I1067
sI750
I1068
sI751
I1069
sI752
I1070
sI753
I1071
sI754
I1072
sI755
I1073
sI756
I1074
sI757
I1081
sI758
I1082
sI759
I1083
sI760
I1084
sI761
I1085
sI762
I1086
sI763
I1087
sI764
I1088
sI765
I1089
sI766
I1090
sI767
I1091
sI768
I1092
sI769
I1093
sI770
I1094
sI771
I1101
sI772
I1102
sI773
I1103
sI774
I1104
sI775
I1105
sI776
I1106
sI777
I1107
sI778
I1108
sI779
I1109
sI780
I1110
sI781
I1111
sI782
I1112
sI783
I1113
sI784
I1114
sI785
I1121
sI786
I1122
sI787
I1123
sI788
I1124
sI789
I1125
sI790
I1126
sI791
I1127
sI792
I1128
sI793
I1129
sI794
I1130
sI795
I1131
sI796
I1132
sI797
I1133
sI798
I1134
sI799
I1141
sI800
I1142
sI801
I1143
sI802
I1144
sI803
I1145
sI804
I1146
sI805
I1147
sI806
I1148
sI807
I1149
sI808
I1150
sI809
I1151
sI810
I1152
sI811
I1153
sI812
I1154
sI813
I1161
sI814
I1162
sI815
I1163
sI816
I1164
sI817
I1165
sI818
I1166
sI819
I1167
sI820
I1168
sI821
I1169
sI822
I1170
sI823
I1171
sI824
I1172
sI825
I1173
sI826
I1174
sI827
I1181
sI828
I1182
sI829
I1183
sI830
I1184
sI831
I1185
sI832
I1186
sI833
I1187
sI834
I1188
sI835
I1189
sI836
I1190
sI837
I1191
sI838
I1192
sI839
I1193
sI840
I1194
sI841
I1201
sI842
I1202
sI843
I1203
sI844
I1204
sI845
I1205
sI846
I1206
sI847
I1207
sI848
I1208
sI849
I1209
sI850
I1210
sI851
I1211
sI852
I1212
sI853
I1213
sI854
I1214
sI855
I1221
sI856
I1222
sI857
I1223
sI858
I1224
sI859
I1225
sI860
I1226
sI861
I1227
sI862
I1228
sI863
I1229
sI864
I1230
sI865
I1231
sI866
I1232
sI867
I1233
sI868
I1234
sI869
I1241
sI870
I1242
sI871
I1243
sI872
I1244
sI873
I1245
sI874
I1246
sI875
I1247
sI876
I1248
sI877
I1249
sI878
I618
sI879
I1251
sI880
I1252
sI881
I1253
sI882
I1254
sI883
I1261
sI884
I1262
sI885
I1263
sI886
I1264
sI887
I1265
sI888
I1266
sI889
I1267
sI890
I1268
sI891
I1269
sI892
I1270
sI893
I1271
sI894
I1272
sI895
I1273
sI896
I1274
sI897
I1281
sI898
I1282
sI899
I1283
sI900
I1284
sI901
I1285
sI902
I1286
sI903
I1287
sI904
I1288
sI905
I1289
sI906
I1290
sI907
I1291
sI908
I1292
sI909
I1293
sI910
I1294
sI911
I1301
sI912
I1302
sI913
I1303
sI914
I1304
sI915
I1305
sI916
I1306
sI917
I1307
sI918
I1308
sI919
I1309
sI920
I1310
sI921
I1311
sI922
I1312
sI923
I1313
sI924
I1314
sI925
I1321
sI926
I1322
sI927
I1323
sI928
I1324
sI929
I1325
sI930
I1326
sI931
I1327
sI932
I1328
sI933
I1329
sI934
I1330
sI935
I1331
sI936
I1332
sI937
I1333
sI938
I1334
sI939
I1341
sI940
I1342
sI941
I1343
sI942
I1344
sI943
I1345
sI944
I1346
sI945
I1347
sI946
I1348
sI947
I1349
sI948
I1350
sI949
I1351
sI950
I1352
sI951
I1353
sI952
I1354
sI953
I1361
sI954
I1362
sI955
I1363
sI956
I1364
sI957
I1365
sI958
I1366
sI959
I1367
sI960
I1368
sI961
I1369
sI962
I1370
sI963
I1371
sI964
I1372
sI965
I1373
sI966
I1374
sI967
I1381
sI968
I1382
sI969
I1383
sI970
I1384
sI971
I1385
sI972
I1386
sI973
I1387
sI974
I1388
sI975
I1389
sI976
I1390
sI977
I1391
sI978
I1392
sI979
I1393
sI980
I1394
sI981
I1401
sI982
I1402
sI983
I1403
sI984
I1404
sI985
I1405
sI986
I1406
sI987
I1407
sI988
I1408
sI989
I1409
sI990
I1410
sI991
I1411
sI992
I1412
sI993
I1413
sI994
I1414
sI995
I1421
sI996
I1422
sI997
I1423
sI998
I1424
sI999
I1425
sI1000
I1426
sI1001
I1427
sI1002
I1428
sI1003
I1429
sI1004
I1430
sI1005
I1431
sI1006
I1432
sI1007
I1433
sI1008
I1434
sI1009
I1441
sI1010
I1442
sI1011
I1443
sI1012
I1444
sI1013
I1445
sI1014
I1446
sI1015
I1447
sI1016
I1448
sI1017
I1449
sI1018
I1450
sI1019
I1451
sI1020
I1452
sI1021
I1453
sI1022
I1454
sI1023
I1461
sI1024
I1462
sI1025
I1463
sI1026
I1464
sI1027
I1465
sI1028
I1466
sI1029
I1467
sI1030
I1468
sI1031
I1469
sI1032
I1470
sI1033
I1471
sI1034
I1472
sI1035
I1473
sI1036
I1474
sI1037
I1481
sI1038
I1482
sI1039
I1483
sI1040
I1484
sI1041
I1485
sI1042
I1486
sI1043
I1487
sI1044
I1488
sI1045
I1489
sI1046
I1490
sI1047
I1491
sI1048
I1492
sI1049
I1493
sI1050
I1494
sI1051
I1501
sI1052
I1502
sI1053
I1503
sI1054
I1504
sI1055
I1505
sI1056
I1506
sI1057
I1507
sI1058
I1508
sI1059
I1509
sI1060
I1510
sI1061
I1511
sI1062
I1512
sI1063
I1513
sI1064
I1514
sI1065
I1521
sI1066
I1522
sI1067
I1523
sI1068
I1524
sI1069
I1525
sI1070
I1526
sI1071
I1527
sI1072
I1528
sI1073
I1529
sI1074
I1530
sI1075
I1531
sI1076
I1532
sI1077
I1533
sI1078
I1534
sI1079
I1541
sI1080
I1542
sI1081
I1543
sI1082
I1544
sI1083
I1545
sI1084
I1546
sI1085
I1547
sI1086
I1548
sI1087
I1549
sI1088
I1550
sI1089
I1551
sI1090
I1552
sI1091
I1553
sI1092
I1554
sI1093
I1561
sI1094
I1562
sI1095
I1563
sI1096
I1564
sI1097
I1565
sI1098
I1566
sI1099
I1567
sI1100
I1568
sI1101
I1569
sI1102
I1570
sI1103
I1571
sI1104
I1572
sI1105
I1573
sI1106
I1574
sI1107
I1581
sI1108
I1582
sI1109
I1583
sI1110
I1584
sI1111
I1585
sI1112
I1586
sI1113
I1587
sI1114
I1588
sI1115
I1589
sI1116
I1590
sI1117
I1591
sI1118
I1592
sI1119
I1593
sI1120
I1594
sI1121
I1601
sI1122
I1602
sI1123
I1603
sI1124
I1604
sI1125
I1605
sI1126
I1606
sI1127
I1607
sI1128
I1608
sI1129
I1609
sI1130
I1610
sI1131
I1611
sI1132
I1612
sI1133
I1613
sI1134
I1614
sI1135
I1621
sI1136
I1622
sI1137
I1623
sI1138
I1624
sI1139
I1625
sI1140
I1626
sI1141
I1627
sI1142
I1628
sI1143
I1629
sI1144
I1630
sI1145
I1631
sI1146
I1632
sI1147
I1633
sI1148
I1634
sI1149
I1641
sI1150
I1642
sI1151
I1643
sI1152
I1644
sI1153
I1645
sI1154
I1646
sI1155
I1647
sI1156
I1648
sI1157
I1649
sI1158
I1650
sI1159
I1651
sI1160
I1652
sI1161
I1653
sI1162
I1654
sI1163
I1661
sI1164
I1662
sI1165
I1663
sI1166
I1664
sI1167
I1665
sI1168
I1666
sI1169
I1667
sI1170
I1668
sI1171
I1669
sI1172
I1670
sI1173
I1671
sI1174
I1097
sI1175
I1673
sI1176
I1674
sI1177
I1681
sI1178
I1682
sI1179
I1683
sI1180
I1684
sI1181
I1685
sI1182
I1686
sI1183
I1687
sI1184
I1688
sI1185
I1689
sI1186
I1690
sI1187
I1691
sI1188
I1692
sI1189
I1693
sI1190
I1694
sI1191
I1701
sI1192
I1702
sI1193
I1703
sI1194
I1704
sI1195
I1705
sI1196
I1706
sI1197
I1707
sI1198
I1708
sI1199
I1709
sI1200
I1710
sI1201
I1711
sI1202
I1712
sI1203
I1713
sI1204
I1714
sI1205
I1721
sI1206
I1722
sI1207
I1723
sI1208
I1724
sI1209
I1725
sI1210
I1726
sI1211
I1727
sI1212
I1728
sI1213
I1729
sI1214
I1730
sI1215
I1731
sI1216
I1732
sI1217
I1733
sI1218
I1734
sI1219
I1741
sI1220
I1742
sI1221
I1743
sI1222
I1744
sI1223
I1745
sI1224
I1746
sI1225
I1747
sI1226
I1748
sI1227
I1749
sI1228
I1750
sI1229
I1751
sI1230
I1752
sI1231
I1753
sI1232
I1754
sI1233
I1761
sI1234
I1762
sI1235
I1763
sI1236
I1764
sI1237
I1765
sI1238
I1766
sI1239
I1767
sI1240
I1768
sI1241
I1769
sI1242
I1770
sI1243
I1771
sI1244
I1772
sI1245
I1773
sI1246
I1774
sI1247
I1781
sI1248
I1782
sI1249
I1783
sI1250
I1784
sI1251
I1785
sI1252
I1786
sI1253
I1787
sI1254
I1788
sI1255
I1789
sI1256
I1790
sI1257
I1791
sI1258
I1792
sI1259
I1793
sI1260
I1794
sI1261
I1801
sI1262
I1802
sI1263
I1803
sI1264
I1804
sI1265
I1805
sI1266
I1806
sI1267
I1807
sI1268
I1808
sI1269
I1809
sI1270
I1810
sI1271
I1811
sI1272
I1812
sI1273
I1813
sI1274
I1814
sI1275
I1821
sI1276
I1822
sI1277
I1823
sI1278
I1824
sI1279
I1825
sI1280
I1826
sI1281
I1827
sI1282
I1828
sI1283
I1829
sI1284
I1830
sI1285
I1831
sI1286
I1832
sI1287
I1833
sI1288
I1834
sI1289
I1841
sI1290
I1842
sI1291
I1843
sI1292
I1844
sI1293
I1845
sI1294
I1846
sI1295
I1847
sI1296
I1915
sI1297
I1849
sI1298
I1850
sI1299
I1851
sI1300
I1852
sI1301
I1853
sI1302
I1854
sI1303
I1861
sI1304
I1862
sI1305
I1863
sI1306
I1864
sI1307
I1865
sI1308
I1866
sI1309
I1867
sI1310
I1868
sI1311
I1869
sI1312
I1870
sI1313
I1871
sI1314
I1872
sI1315
I1873
sI1316
I1874
sI1317
I1881
sI1318
I1882
sI1319
I1883
sI1320
I1884
sI1321
I1885
sI1322
I1886
sI1323
I1887
sI1324
I1888
sI1325
I1889
sI1326
I1890
sI1327
I1891
sI1328
I1892
sI1329
I1893
sI1330
I1894
sI1331
I1901
sI1332
I1902
sI1333
I1903
sI1334
I1904
sI1335
I1905
sI1336
I1906
sI1337
I1907
sI1338
I1908
sI1339
I1909
sI1340
I1910
sI1341
I1911
sI1342
I1912
sI1343
I1913
sI1344
I1914
sI1345
I1921
sI1346
I1922
sI1347
I1923
sI1348
I1924
sI1349
I1925
sI1350
I1926
sI1351
I1927
sI1352
I1928
sI1353
I1929
sI1354
I1930
sI1355
I1931
sI1356
I1932
sI1357
I1933
sI1358
I1934
sI1359
I1941
sI1360
I1942
sI1361
I1943
sI1362
I1944
sI1363
I1945
sI1364
I1946
sI1365
I1947
sI1366
I1948
sI1367
I1949
sI1368
I1950
sI1369
I1951
sI1370
I1952
sI1371
I1953
sI1372
I1954
sI1373
I1961
sI1374
I1962
sI1375
I1963
sI1376
I1964
sI1377
I1965
sI1378
I1966
sI1379
I1967
sI1380
I1968
sI1381
I1969
sI1382
I1970
sI1383
I1971
sI1384
I1972
sI1385
I1973
sI1386
I1974
sI1387
I1981
sI1388
I1982
sI1389
I1983
sI1390
I1984
sI1391
I1985
sI1392
I1986
sI1393
I1987
sI1394
I1988
sI1395
I1989
sI1396
I1990
sI1397
I1991
sI1398
I1992
sI1399
I1993
sI1400
I1994
sI1401
I2001
sI1402
I2002
sI1403
I2003
sI1404
I2004
sI1405
I2005
sI1406
I2006
sI1407
I2007
sI1408
I2008
sI1409
I2009
sI1410
I2010
sI1411
I2011
sI1412
I2012
sI1413
I2013
sI1414
I2014
sI1415
I2021
sI1416
I2022
sI1417
I2023
sI1418
I2024
sI1419
I2025
sI1420
I2026
sI1421
I2027
sI1422
I2028
sI1423
I2029
sI1424
I2030
sI1425
I2031
sI1426
I2032
sI1427
I2033
sI1428
I2034
sI1429
I2041
sI1430
I2042
sI1431
I2043
sI1432
I2044
sI1433
I2045
sI1434
I2046
sI1435
I2047
sI1436
I2048
sI1437
I2049
sI1438
I2050
sI1439
I2051
sI1440
I2052
sI1441
I2053
sI1442
I2054
sI1443
I2061
sI1444
I2062
sI1445
I2063
sI1446
I2064
sI1447
I2065
sI1448
I2066
sI1449
I2067
sI1450
I2068
sI1451
I2069
sI1452
I2070
sI1453
I2071
sI1454
I2072
sI1455
I2073
sI1456
I2074
sI1457
I2081
sI1458
I2082
sI1459
I2083
sI1460
I2084
sI1461
I2085
sI1462
I2086
sI1463
I2087
sI1464
I2088
sI1465
I2089
sI1466
I2090
sI1467
I2091
sI1468
I2092
sI1469
I2093
sI1470
I2094
sI1471
I2101
sI1472
I2102
sI1473
I2103
sI1474
I2104
sI1475
I2105
sI1476
I2106
sI1477
I2107
sI1478
I2108
sI1479
I2109
sI1480
I2110
sI1481
I2111
sI1482
I2112
sI1483
I2113
sI1484
I2114
sI1485
I2121
sI1486
I2122
sI1487
I2123
sI1488
I2124
sI1489
I2125
sI1490
I2126
sI1491
I2127
sI1492
I2128
sI1493
I2129
sI1494
I2130
sI1495
I2131
sI1496
I2132
sI1497
I2133
sI1498
I2134
sI1499
I2141
sI1500
I2142
sI1501
I2143
sI1502
I2144
sI1503
I2145
sI1504
I2146
sI1505
I2147
sI1506
I2148
sI1507
I2149
sI1508
I2150
sI1509
I2151
sI1510
I2152
sI1511
I2153
sI1512
I2154
sI1513
I2161
sI1514
I2162
sI1515
I2163
sI1516
I2164
sI1517
I2165
sI1518
I2166
sI1519
I2167
sI1520
I2168
sI1521
I2169
sI1522
I2170
sI1523
I2171
sI1524
I2172
sI1525
I2173
sI1526
I2174
sI1527
I2181
sI1528
I2182
sI1529
I2183
sI1530
I2184
sI1531
I2185
sI1532
I2186
sI1533
I2187
sI1534
I2188
sI1535
I2189
sI1536
I2190
sI1537
I2191
sI1538
I2192
sI1539
I2193
sI1540
I2194
sI1541
I2201
sI1542
I2202
sI1543
I2203
sI1544
I2204
sI1545
I2205
sI1546
I2206
sI1547
I2207
sI1548
I2208
sI1549
I2209
sI1550
I2210
sI1551
I2211
sI1552
I2212
sI1553
I2213
sI1554
I2214
sI1555
I2221
sI1556
I2222
sI1557
I2223
sI1558
I2224
sI1559
I2225
sI1560
I2226
sI1561
I2227
sI1562
I2228
sI1563
I2229
sI1564
I2230
sI1565
I2231
sI1566
I2232
sI1567
I2233
sI1568
I2234
sI1569
I2241
sI1570
I2242
sI1571
I2243
sI1572
I2244
sI1573
I2245
sI1574
I2246
sI1575
I2247
sI1576
I2248
sI1577
I2249
sI1578
I2250
sI1579
I2251
sI1580
I2252
sI1581
I2253
sI1582
I2254
sI1583
I2261
sI1584
I2262
sI1585
I2263
sI1586
I2264
sI1587
I2265
sI1588
I2266
sI1589
I2267
sI1590
I2268
sI1591
I2269
sI1592
I2270
sI1593
I2271
sI1594
I2272
sI1595
I2273
sI1596
I2274
sI1597
I2281
sI1598
I2282
sI1599
I2283
sI1600
I2284
sI1601
I2285
sI1602
I2286
sI1603
I1797
sI1604
I2288
sI1605
I2289
sI1606
I2290
sI1607
I2291
sI1608
I2292
sI1609
I2293
sI1610
I2294
sI1611
I2301
sI1612
I2302
sI1613
I2303
sI1614
I2304
sI1615
I2305
sI1616
I2306
sI1617
I2307
sI1618
I2308
sI1619
I2309
sI1620
I2310
sI1621
I2311
sI1622
I2312
sI1623
I2313
sI1624
I2314
sI1625
I2321
sI1626
I2322
sI1627
I2323
sI1628
I2324
sI1629
I2325
sI1630
I2326
sI1631
I2327
sI1632
I2328
sI1633
I2329
sI1634
I2330
sI1635
I2331
sI1636
I2332
sI1637
I2333
sI1638
I2334
sI1639
I2341
sI1640
I2342
sI1641
I2343
sI1642
I2344
sI1643
I2345
sI1644
I2346
sI1645
I2347
sI1646
I2348
sI1647
I2349
sI1648
I2350
sI1649
I2351
sI1650
I2352
sI1651
I2353
sI1652
I2354
sI1653
I2361
sI1654
I2362
sI1655
I2363
sI1656
I2364
sI1657
I2365
sI1658
I2366
sI1659
I2367
sI1660
I2368
sI1661
I2369
sI1662
I2370
sI1663
I2371
sI1664
I2372
sI1665
I2373
sI1666
I2374
sI1667
I2381
sI1668
I2382
sI1669
I2383
sI1670
I2384
sI1671
I2385
sI1672
I2386
sI1673
I2387
sI1674
I2388
sI1675
I2389
sI1676
I2390
sI1677
I2391
sI1678
I2392
sI1679
I2393
sI1680
I2394
sI1681
I2401
sI1682
I2402
sI1683
I2403
sI1684
I2404
sI1685
I2405
sI1686
I2406
sI1687
I2407
sI1688
I2408
sI1689
I2409
sI1690
I2410
sI1691
I2411
sI1692
I2412
sI1693
I2413
sI1694
I2414
sI1695
I2421
sI1696
I2422
sI1697
I2423
sI1698
I2424
sI1699
I2425
sI1700
I2426
sI1701
I2427
sI1702
I2428
sI1703
I2429
sI1704
I2430
sI1705
I2431
sI1706
I2432
sI1707
I2433
sI1708
I2434
sI1709
I2441
sI1710
I2442
sI1711
I2443
sI1712
I2444
sI1713
I2445
sI1714
I2446
sI1715
I2447
sI1716
I2448
sI1717
I2449
sI1718
I2450
sI1719
I2451
sI1720
I2452
sI1721
I2453
sI1722
I2454
sI1723
I2461
sI1724
I2462
sI1725
I2463
sI1726
I2464
sI1727
I2465
sI1728
I2466
sI1729
I2467
sI1730
I2468
sI1731
I2469
sI1732
I2470
sI1733
I2471
sI1734
I2472
sI1735
I2473
sI1736
I2474
sI1737
I2481
sI1738
I2482
sI1739
I2483
sI1740
I2484
sI1741
I2485
sI1742
I2486
sI1743
I1095
sI1744
I2488
sI1745
I2489
sI1746
I2490
sI1747
I2491
sI1748
I2492
sI1749
I2493
sI1750
I2494
sI1751
I2501
sI1752
I2502
sI1753
I2503
sI1754
I2504
sI1755
I2505
sI1756
I2506
sI1757
I2507
sI1758
I2508
sI1759
I2509
sI1760
I2510
sI1761
I2511
sI1762
I2512
sI1763
I2513
sI1764
I2514
sI1765
I2521
sI1766
I2522
sI1767
I2523
sI1768
I2524
sI1769
I2525
sI1770
I2526
sI1771
I2527
sI1772
I2528
sI1773
I2529
sI1774
I2530
sI1775
I2531
sI1776
I2532
sI1777
I2533
sI1778
I2534
sI1779
I2541
sI1780
I2542
sI1781
I2543
sI1782
I2544
sI1783
I2545
sI1784
I2546
sI1785
I2547
sI1786
I2548
sI1787
I2549
sI1788
I2550
sI1789
I2551
sI1790
I2552
sI1791
I2553
sI1792
I2554
sI1793
I2561
sI1794
I2562
sI1795
I2563
sI1796
I2564
sI1797
I2565
sI1798
I2566
sI1799
I2567
sI1800
I2568
sI1801
I2569
sI1802
I2570
sI1803
I2571
sI1804
I2572
sI1805
I2573
sI1806
I2574
sI1807
I2581
sI1808
I2582
sI1809
I2583
sI1810
I2584
sI1811
I2585
sI1812
I2586
sI1813
I2587
sI1814
I2588
sI1815
I2589
sI1816
I2590
sI1817
I2591
sI1818
I2592
sI1819
I2593
sI1820
I2594
sI1821
I2601
sI1822
I2602
sI1823
I2603
sI1824
I2604
sI1825
I2605
sI1826
I2606
sI1827
I2607
sI1828
I2608
sI1829
I2609
sI1830
I2610
sI1831
I2611
sI1832
I2612
sI1833
I2613
sI1834
I2614
sI1835
I2621
sI1836
I2622
sI1837
I2623
sI1838
I2624
sI1839
I2625
sI1840
I2626
sI1841
I2627
sI1842
I2628
sI1843
I2629
sI1844
I2630
sI1845
I2631
sI1846
I2632
sI1847
I2633
sI1848
I2634
sI1849
I2641
sI1850
I2642
sI1851
I2643
sI1852
I2644
sI1853
I2645
sI1854
I2646
sI1855
I2647
sI1856
I2648
sI1857
I2649
sI1858
I2650
sI1859
I2651
sI1860
I2652
sI1861
I2653
sI1862
I2654
sI1863
I2661
sI1864
I2662
sI1865
I2663
sI1866
I2664
sI1867
I2665
sI1868
I2666
sI1869
I2667
sI1870
I2668
sI1871
I2669
sI1872
I2670
sI1873
I2671
sI1874
I2672
sI1875
I2673
sI1876
I2674
sI1877
I2681
sI1878
I2682
sI1879
I2683
sI1880
I2684
sI1881
I2685
sI1882
I2686
sI1883
I2687
sI1884
I2688
sI1885
I2689
sI1886
I2690
sI1887
I2691
sI1888
I2692
sI1889
I2693
sI1890
I2694
sI1891
I2701
sI1892
I2702
sI1893
I2703
sI1894
I2704
sI1895
I2705
sI1896
I2706
sI1897
I2707
sI1898
I2708
sI1899
I2709
sI1900
I2710
sI1901
I2711
sI1902
I2712
sI1903
I2713
sI1904
I2714
sI1905
I2721
sI1906
I2722
sI1907
I2723
sI1908
I2724
sI1909
I2725
sI1910
I2726
sI1911
I2727
sI1912
I2728
sI1913
I2729
sI1914
I2730
sI1915
I2731
sI1916
I2732
sI1917
I2733
sI1918
I2734
sI1919
I2741
sI1920
I2742
sI1921
I2743
sI1922
I2744
sI1923
I2745
sI1924
I2746
sI1925
I2747
sI1926
I2748
sI1927
I2749
sI1928
I2750
sI1929
I2751
sI1930
I2752
sI1931
I2753
sI1932
I2754
sI1933
I2761
sI1934
I2762
sI1935
I2763
sI1936
I2764
sI1937
I2765
sI1938
I2766
sI1939
I2767
sI1940
I2768
sI1941
I2769
sI1942
I2770
sI1943
I2771
sI1944
I2772
sI1945
I2773
sI1946
I2774
sI1947
I2781
sI1948
I2782
sI1949
I2783
sI1950
I2784
sI1951
I2785
sI1952
I2786
sI1953
I2787
sI1954
I2788
sI1955
I2789
sI1956
I2790
sI1957
I2791
sI1958
I2792
sI1959
I2793
sI1960
I2794
sI1961
I2801
sI1962
I2802
sI1963
I2803
sI1964
I2804
sI1965
I2805
sI1966
I2806
sI1967
I2807
sI1968
I2808
sI1969
I2809
sI1970
I2810
sI1971
I2811
sI1972
I2812
sI1973
I2813
sI1974
I2814
sI1975
I2821
sI1976
I2822
sI1977
I2823
sI1978
I2824
sI1979
I2825
sI1980
I2826
sI1981
I2827
sI1982
I2828
sI1983
I2829
sI1984
I2830
sI1985
I2831
sI1986
I2832
sI1987
I2833
sI1988
I2834
sI1989
I2841
sI1990
I2842
sI1991
I2843
sI1992
I2844
sI1993
I2845
sI1994
I2846
sI1995
I2847
sI1996
I2848
sI1997
I2849
sI1998
I2850
sI1999
I2851
sI2000
I2852
sI2001
I2853
sI2002
I2854
sI2003
I2861
sI2004
I2862
sI2005
I2863
sI2006
I2864
sI2007
I2865
sI2008
I2866
sI2009
I2867
sI2010
I2868
sI2011
I2869
sI2012
I2870
sI2013
I2871
sI2014
I2872
sI2015
I2873
sI2016
I2874
sI2017
I2881
sI2018
I2882
sI2019
I2883
sI2020
I2884
sI2021
I2885
sI2022
I2886
sI2023
I2887
sI2024
I2888
sI2025
I2889
sI2026
I2890
sI2027
I2891
sI2028
I2892
sI2029
I2893
sI2030
I2894
sI2031
I2901
sI2032
I2902
sI2033
I2903
sI2034
I2904
sI2035
I2905
sI2036
I2906
sI2037
I2907
sI2038
I2908
sI2039
I2909
sI2040
I2910
sI2041
I2911
sI2042
I2912
sI2043
I2913
sI2044
I2914
sI2045
I2921
sI2046
I2922
sI2047
I2923
sI2048
I2924
sI2049
I2925
sI2050
I2926
sI2051
I2927
sI2052
I2928
sI2053
I2929
sI2054
I2930
sI2055
I2931
sI2056
I2932
sI2057
I2933
sI2058
I2934
sI2059
I2941
sI2060
I2942
sI2061
I2943
sI2062
I2944
sI2063
I2945
sI2064
I2946
sI2065
I2947
sI2066
I2948
sI2067
I2949
sI2068
I2950
sI2069
I2951
sI2070
I2952
sI2071
I2953
sI2072
I2954
sI2073
I2961
sI2074
I2962
sI2075
I2963
sI2076
I2964
sI2077
I2965
sI2078
I2966
sI2079
I2967
sI2080
I2968
sI2081
I2969
sI2082
I2970
sI2083
I2971
sI2084
I2972
sI2085
I2973
sI2086
I2974
sI2087
I2981
sI2088
I2982
sI2089
I2983
sI2090
I2984
sI2091
I2985
sI2092
I2986
sI2093
I2987
sI2094
I2988
sI2095
I2989
sI2096
I299
sI2097
I2991
sI2098
I2992
sI2099
I2993
sI2100
I2994
sI2101
I3001
sI2102
I3002
sI2103
I3003
sI2104
I3004
sI2105
I3005
sI2106
I3006
sI2107
I3007
sI2108
I3008
sI2109
I3009
sI2110
I3010
sI2111
I3011
sI2112
I3012
sI2113
I3013
sI2114
I3014
sI2115
I3021
sI2116
I3022
sI2117
I3023
sI2118
I3024
sI2119
I3025
sI2120
I3026
sI2121
I3027
sI2122
I3028
sI2123
I3029
sI2124
I3030
sI2125
I3031
sI2126
I3032
sI2127
I3033
sI2128
I3034
sI2129
I3041
sI2130
I3042
sI2131
I3043
sI2132
I3044
sI2133
I3045
sI2134
I3046
sI2135
I3047
sI2136
I3048
sI2137
I3049
sI2138
I3050
sI2139
I3051
sI2140
I3052
sI2141
I3053
sI2142
I3054
sI2143
I3061
sI2144
I3062
sI2145
I3063
sI2146
I3064
sI2147
I3065
sI2148
I3066
sI2149
I3067
sI2150
I3068
sI2151
I3069
sI2152
I3070
sI2153
I3071
sI2154
I3072
sI2155
I3073
sI2156
I3074
sI2157
I3081
sI2158
I3082
sI2159
I3083
sI2160
I3084
sI2161
I3085
sI2162
I3086
sI2163
I3087
sI2164
I3088
sI2165
I3089
sI2166
I3090
sI2167
I3091
sI2168
I3092
sI2169
I3093
sI2170
I3094
sI2171
I3101
sI2172
I3102
sI2173
I3103
sI2174
I3104
sI2175
I3105
sI2176
I3106
sI2177
I3107
sI2178
I3108
sI2179
I3109
sI2180
I3110
sI2181
I3111
sI2182
I3112
sI2183
I3113
sI2184
I3114
sI2185
I3121
sI2186
I3122
sI2187
I3123
sI2188
I3124
sI2189
I3125
sI2190
I3126
sI2191
I3127
sI2192
I3128
sI2193
I3129
sI2194
I3130
sI2195
I3131
sI2196
I3132
sI2197
I3133
sI2198
I3134
sI2199
I3141
sI2200
I3142
sI2201
I3143
sI2202
I3144
sI2203
I3145
sI2204
I3146
sI2205
I3147
sI2206
I3148
sI2207
I3149
sI2208
I3150
sI2209
I3151
sI2210
I3152
sI2211
I3153
sI2212
I3154
sI2213
I3161
sI2214
I3162
sI2215
I3163
sI2216
I3164
sI2217
I3165
sI2218
I3166
sI2219
I3167
sI2220
I3168
sI2221
I3169
sI2222
I3170
sI2223
I3171
sI2224
I3172
sI2225
I3173
sI2226
I3174
sI2227
I3181
sI2228
I3182
sI2229
I3183
sI2230
I3184
sI2231
I3185
sI2232
I3186
sI2233
I3187
sI2234
I3188
sI2235
I3189
sI2236
I3190
sI2237
I3191
sI2238
I3192
sI2239
I3193
sI2240
I3194
sI2241
I3201
sI2242
I3202
sI2243
I3203
sI2244
I3204
sI2245
I3205
sI2246
I3206
sI2247
I3207
sI2248
I3208
sI2249
I3209
sI2250
I3210
sI2251
I3211
sI2252
I3212
sI2253
I3213
sI2254
I3214
sI2255
I3221
sI2256
I3222
sI2257
I3223
sI2258
I3224
sI2259
I3225
sI2260
I3226
sI2261
I3227
sI2262
I3228
sI2263
I3229
sI2264
I3230
sI2265
I3231
sI2266
I3232
sI2267
I3233
sI2268
I3234
sI2269
I3241
sI2270
I3242
sI2271
I3243
sI2272
I3244
sI2273
I3245
sI2274
I3246
sI2275
I3247
sI2276
I3248
sI2277
I3249
sI2278
I3250
sI2279
I3251
sI2280
I3252
sI2281
I3253
sI2282
I3254
sI2283
I3261
sI2284
I3262
sI2285
I3263
sI2286
I3264
sI2287
I3265
sI2288
I3266
sI2289
I3267
sI2290
I3268
sI2291
I3269
sI2292
I3270
sI2293
I3271
sI2294
I3272
sI2295
I3273
sI2296
I3274
sI2297
I3281
sI2298
I3282
sI2299
I3283
sI2300
I3284
sI2301
I3285
sI2302
I3286
sI2303
I3287
sI2304
I3288
sI2305
I3289
sI2306
I3290
sI2307
I3291
sI2308
I3292
sI2309
I3293
sI2310
I3294
sI2311
I3301
sI2312
I3302
sI2313
I3303
sI2314
I3304
sI2315
I3305
sI2316
I3306
sI2317
I3307
sI2318
I3308
sI2319
I3309
sI2320
I3310
sI2321
I3311
sI2322
I3312
sI2323
I3313
sI2324
I3314
sI2325
I3321
sI2326
I3322
sI2327
I3323
sI2328
I3324
sI2329
I3325
sI2330
I3326
sI2331
I3327
sI2332
I3328
sI2333
I3329
sI2334
I3330
sI2335
I3331
sI2336
I3332
sI2337
I3333
sI2338
I3334
sI2339
I3341
sI2340
I3342
sI2341
I3343
sI2342
I3344
sI2343
I3345
sI2344
I3346
sI2345
I3347
sI2346
I3348
sI2347
I3349
sI2348
I3350
sI2349
I3351
sI2350
I3352
sI2351
I3353
sI2352
I3354
sI2353
I3361
sI2354
I3362
sI2355
I3363
sI2356
I3364
sI2357
I3365
sI2358
I3366
sI2359
I3367
sI2360
I3368
sI2361
I3058
sI2362
I3484
sI2363
I3371
sI2364
I3372
sI2365
I3373
sI2366
I3374
sI2367
I3381
sI2368
I3382
sI2369
I3383
sI2370
I3384
sI2371
I3385
sI2372
I3386
sI2373
I3387
sI2374
I3388
sI2375
I3389
sI2376
I3390
sI2377
I3391
sI2378
I3392
sI2379
I3393
sI2380
I3394
sI2381
I3401
sI2382
I3402
sI2383
I3403
sI2384
I3404
sI2385
I3405
sI2386
I3406
sI2387
I3407
sI2388
I3408
sI2389
I3409
sI2390
I3410
sI2391
I3411
sI2392
I3412
sI2393
I3413
sI2394
I3414
sI2395
I3421
sI2396
I3422
sI2397
I3423
sI2398
I3424
sI2399
I3425
sI2400
I3426
sI2401
I3427
sI2402
I3428
sI2403
I3429
sI2404
I3430
sI2405
I3431
sI2406
I3432
sI2407
I3433
sI2408
I3434
sI2409
I3441
sI2410
I3442
sI2411
I3443
sI2412
I3444
sI2413
I3445
sI2414
I3446
sI2415
I3447
sI2416
I3448
sI2417
I3449
sI2418
I3450
sI2419
I3451
sI2420
I3452
sI2421
I3453
sI2422
I3454
sI2423
I3461
sI2424
I3462
sI2425
I3463
sI2426
I3464
sI2427
I3465
sI2428
I3466
sI2429
I3467
sI2430
I3468
sI2431
I3469
sI2432
I3470
sI2433
I3471
sI2434
I3472
sI2435
I3473
sI2436
I3474
sI2437
I3481
sI2438
I3482
sI2439
I3483
sI2440
I4669
sI2441
I3485
sI2442
I3486
sI2443
I3487
sI2444
I3488
sI2445
I3489
sI2446
I3490
sI2447
I3491
sI2448
I3492
sI2449
I3493
sI2450
I3494
sI2451
I3501
sI2452
I3502
sI2453
I3503
sI2454
I3504
sI2455
I3505
sI2456
I3506
sI2457
I3507
sI2458
I3508
sI2459
I3509
sI2460
I3510
sI2461
I3511
sI2462
I3512
sI2463
I3513
sI2464
I3514
sI2465
I3521
sI2466
I3522
sI2467
I3523
sI2468
I3524
sI2469
I3525
sI2470
I3526
sI2471
I3527
sI2472
I3528
sI2473
I3529
sI2474
I3530
sI2475
I3531
sI2476
I3532
sI2477
I3533
sI2478
I3534
sI2479
I3541
sI2480
I3542
sI2481
I3543
sI2482
I3544
sI2483
I3545
sI2484
I3546
sI2485
I3547
sI2486
I3548
sI2487
I3549
sI2488
I3550
sI2489
I3551
sI2490
I3552
sI2491
I3553
sI2492
I3554
sI2493
I3561
sI2494
I3562
sI2495
I3563
sI2496
I3564
sI2497
I3565
sI2498
I3566
sI2499
I3567
sI2500
I3568
sI2501
I3569
sI2502
I3570
sI2503
I3571
sI2504
I3572
sI2505
I3573
sI2506
I3574
sI2507
I3581
sI2508
I3582
sI2509
I3583
sI2510
I3584
sI2511
I3585
sI2512
I3586
sI2513
I3587
sI2514
I3588
sI2515
I3589
sI2516
I3590
sI2517
I3591
sI2518
I3592
sI2519
I3593
sI2520
I3594
sI2521
I3601
sI2522
I3602
sI2523
I3603
sI2524
I3604
sI2525
I3605
sI2526
I3606
sI2527
I3607
sI2528
I3608
sI2529
I3609
sI2530
I3610
sI2531
I3611
sI2532
I3612
sI2533
I3613
sI2534
I3614
sI2535
I3621
sI2536
I3622
sI2537
I3623
sI2538
I3624
sI2539
I3625
sI2540
I3626
sI2541
I3627
sI2542
I3628
sI2543
I3629
sI2544
I3630
sI2545
I3631
sI2546
I3632
sI2547
I3633
sI2548
I3634
sI2549
I3641
sI2550
I3642
sI2551
I3643
sI2552
I3644
sI2553
I3645
sI2554
I3646
sI2555
I3647
sI2556
I3648
sI2557
I3649
sI2558
I3650
sI2559
I3651
sI2560
I3652
sI2561
I3653
sI2562
I3654
sI2563
I3661
sI2564
I3662
sI2565
I3663
sI2566
I3664
sI2567
I3665
sI2568
I3666
sI2569
I3667
sI2570
I3668
sI2571
I3669
sI2572
I3670
sI2573
I3671
sI2574
I3672
sI2575
I3673
sI2576
I3674
sI2577
I3681
sI2578
I3682
sI2579
I3683
sI2580
I3684
sI2581
I3685
sI2582
I3686
sI2583
I3687
sI2584
I3688
sI2585
I3689
sI2586
I3690
sI2587
I3691
sI2588
I3692
sI2589
I3693
sI2590
I3694
sI2591
I3701
sI2592
I3702
sI2593
I3703
sI2594
I3704
sI2595
I3705
sI2596
I3706
sI2597
I3707
sI2598
I3708
sI2599
I3709
sI2600
I3710
sI2601
I3711
sI2602
I3712
sI2603
I3713
sI2604
I3714
sI2605
I3721
sI2606
I3722
sI2607
I3723
sI2608
I3724
sI2609
I3725
sI2610
I3726
sI2611
I3727
sI2612
I3728
sI2613
I3729
sI2614
I3730
sI2615
I3731
sI2616
I3732
sI2617
I3733
sI2618
I3734
sI2619
I3741
sI2620
I3742
sI2621
I3743
sI2622
I3744
sI2623
I3745
sI2624
I3746
sI2625
I3747
sI2626
I3748
sI2627
I3749
sI2628
I3750
sI2629
I3751
sI2630
I3752
sI2631
I3753
sI2632
I3754
sI2633
I3761
sI2634
I3762
sI2635
I3763
sI2636
I3764
sI2637
I3765
sI2638
I3766
sI2639
I3767
sI2640
I3768
sI2641
I3769
sI2642
I3770
sI2643
I3771
sI2644
I3772
sI2645
I3773
sI2646
I3774
sI2647
I3781
sI2648
I3782
sI2649
I3783
sI2650
I3784
sI2651
I3785
sI2652
I3786
sI2653
I3787
sI2654
I3788
sI2655
I3789
sI2656
I3790
sI2657
I3791
sI2658
I3792
sI2659
I3793
sI2660
I3794
sI2661
I3801
sI2662
I3802
sI2663
I3803
sI2664
I3804
sI2665
I3805
sI2666
I3806
sI2667
I3807
sI2668
I3808
sI2669
I3809
sI2670
I3810
sI2671
I3811
sI2672
I3812
sI2673
I3813
sI2674
I3814
sI2675
I3821
sI2676
I3822
sI2677
I3823
sI2678
I3824
sI2679
I3825
sI2680
I3826
sI2681
I3827
sI2682
I3828
sI2683
I3829
sI2684
I3830
sI2685
I3831
sI2686
I3832
sI2687
I3833
sI2688
I3834
sI2689
I3841
sI2690
I3842
sI2691
I3843
sI2692
I3844
sI2693
I3845
sI2694
I3846
sI2695
I3847
sI2696
I3848
sI2697
I3849
sI2698
I3850
sI2699
I3851
sI2700
I3852
sI2701
I3853
sI2702
I3854
sI2703
I3861
sI2704
I3862
sI2705
I3863
sI2706
I3864
sI2707
I3865
sI2708
I3866
sI2709
I3867
sI2710
I3868
sI2711
I3869
sI2712
I3870
sI2713
I3871
sI2714
I3872
sI2715
I3873
sI2716
I3874
sI2717
I3881
sI2718
I3882
sI2719
I3883
sI2720
I3884
sI2721
I3885
sI2722
I3886
sI2723
I3887
sI2724
I3888
sI2725
I3889
sI2726
I3890
sI2727
I3891
sI2728
I3892
sI2729
I3893
sI2730
I3894
sI2731
I3901
sI2732
I3902
sI2733
I3903
sI2734
I3904
sI2735
I3905
sI2736
I3906
sI2737
I3907
sI2738
I3908
sI2739
I3909
sI2740
I3910
sI2741
I3911
sI2742
I3912
sI2743
I3913
sI2744
I3914
sI2745
I3921
sI2746
I3922
sI2747
I3923
sI2748
I3924
sI2749
I3925
sI2750
I3926
sI2751
I3927
sI2752
I3928
sI2753
I3929
sI2754
I3930
sI2755
I3931
sI2756
I3932
sI2757
I3933
sI2758
I3934
sI2759
I3941
sI2760
I3942
sI2761
I3943
sI2762
I3944
sI2763
I3945
sI2764
I3946
sI2765
I3947
sI2766
I3948
sI2767
I3949
sI2768
I3950
sI2769
I3951
sI2770
I3952
sI2771
I3953
sI2772
I3954
sI2773
I3961
sI2774
I3962
sI2775
I3963
sI2776
I3964
sI2777
I3965
sI2778
I3966
sI2779
I3967
sI2780
I3968
sI2781
I3969
sI2782
I3970
sI2783
I3971
sI2784
I3972
sI2785
I3973
sI2786
I3974
sI2787
I3981
sI2788
I3982
sI2789
I3983
sI2790
I3984
sI2791
I3985
sI2792
I3986
sI2793
I3987
sI2794
I3988
sI2795
I3989
sI2796
I3990
sI2797
I3991
sI2798
I3992
sI2799
I3993
sI2800
I3994
sI2801
I4001
sI2802
I4002
sI2803
I4003
sI2804
I4004
sI2805
I4005
sI2806
I4006
sI2807
I4007
sI2808
I4008
sI2809
I4009
sI2810
I4010
sI2811
I4011
sI2812
I4012
sI2813
I4013
sI2814
I4014
sI2815
I4021
sI2816
I4022
sI2817
I4023
sI2818
I4024
sI2819
I4025
sI2820
I4026
sI2821
I4027
sI2822
I4028
sI2823
I4029
sI2824
I4030
sI2825
I4031
sI2826
I4032
sI2827
I4033
sI2828
I4034
sI2829
I4041
sI2830
I4042
sI2831
I4043
sI2832
I4044
sI2833
I4045
sI2834
I4046
sI2835
I4047
sI2836
I4048
sI2837
I4049
sI2838
I4050
sI2839
I4051
sI2840
I4052
sI2841
I4053
sI2842
I4054
sI2843
I4061
sI2844
I4062
sI2845
I4063
sI2846
I4064
sI2847
I4065
sI2848
I4066
sI2849
I4067
sI2850
I4068
sI2851
I4069
sI2852
I4070
sI2853
I4071
sI2854
I4072
sI2855
I4073
sI2856
I4074
sI2857
I4081
sI2858
I4082
sI2859
I4083
sI2860
I4084
sI2861
I4085
sI2862
I4086
sI2863
I4087
sI2864
I4088
sI2865
I4089
sI2866
I4090
sI2867
I4091
sI2868
I4092
sI2869
I4093
sI2870
I4094
sI2871
I4101
sI2872
I4102
sI2873
I4103
sI2874
I4104
sI2875
I4105
sI2876
I4106
sI2877
I4107
sI2878
I4108
sI2879
I4109
sI2880
I4110
sI2881
I4111
sI2882
I4112
sI2883
I4113
sI2884
I4114
sI2885
I4121
sI2886
I4122
sI2887
I4123
sI2888
I4124
sI2889
I4125
sI2890
I4126
sI2891
I4127
sI2892
I4128
sI2893
I4129
sI2894
I4130
sI2895
I4131
sI2896
I4132
sI2897
I4133
sI2898
I4134
sI2899
I4141
sI2900
I4142
sI2901
I4143
sI2902
I4144
sI2903
I4145
sI2904
I4146
sI2905
I4147
sI2906
I4148
sI2907
I4149
sI2908
I4150
sI2909
I4151
sI2910
I4152
sI2911
I4153
sI2912
I4154
sI2913
I4161
sI2914
I4162
sI2915
I4163
sI2916
I4164
sI2917
I4165
sI2918
I4166
sI2919
I4167
sI2920
I4168
sI2921
I4169
sI2922
I4170
sI2923
I4171
sI2924
I4172
sI2925
I4173
sI2926
I4174
sI2927
I4181
sI2928
I4182
sI2929
I4183
sI2930
I4184
sI2931
I4185
sI2932
I4186
sI2933
I4187
sI2934
I4188
sI2935
I4189
sI2936
I4190
sI2937
I4191
sI2938
I4192
sI2939
I4193
sI2940
I4194
sI2941
I4201
sI2942
I4202
sI2943
I4203
sI2944
I4204
sI2945
I4205
sI2946
I4206
sI2947
I4207
sI2948
I4208
sI2949
I4209
sI2950
I4210
sI2951
I4211
sI2952
I4212
sI2953
I4213
sI2954
I4214
sI2955
I4221
sI2956
I4222
sI2957
I4223
sI2958
I4224
sI2959
I4225
sI2960
I4226
sI2961
I4227
sI2962
I4228
sI2963
I4229
sI2964
I4230
sI2965
I4231
sI2966
I4232
sI2967
I4233
sI2968
I4234
sI2969
I4241
sI2970
I4242
sI2971
I4243
sI2972
I4244
sI2973
I4245
sI2974
I4246
sI2975
I4247
sI2976
I4248
sI2977
I4249
sI2978
I4250
sI2979
I4251
sI2980
I4252
sI2981
I4253
sI2982
I4254
sI2983
I4261
sI2984
I4262
sI2985
I4263
sI2986
I4264
sI2987
I4265
sI2988
I4266
sI2989
I4267
sI2990
I4268
sI2991
I4269
sI2992
I4270
sI2993
I4271
sI2994
I4272
sI2995
I4273
sI2996
I4274
sI2997
I4281
sI2998
I4282
sI2999
I4283
sI3000
I4284
sI3001
I4285
sI3002
I4286
sI3003
I4287
sI3004
I4288
sI3005
I4289
sI3006
I4290
sI3007
I4291
sI3008
I4292
sI3009
I4293
sI3010
I4294
sI3011
I4301
sI3012
I4302
sI3013
I4303
sI3014
I4304
sI3015
I4305
sI3016
I4306
sI3017
I4307
sI3018
I4308
sI3019
I4309
sI3020
I4310
sI3021
I4311
sI3022
I4312
sI3023
I4313
sI3024
I4314
sI3025
I4321
sI3026
I4322
sI3027
I4323
sI3028
I4324
sI3029
I4325
sI3030
I4326
sI3031
I4327
sI3032
I4328
sI3033
I4329
sI3034
I4330
sI3035
I4331
sI3036
I4332
sI3037
I4333
sI3038
I4334
sI3039
I4341
sI3040
I4342
sI3041
I4343
sI3042
I4344
sI3043
I4345
sI3044
I4346
sI3045
I4347
sI3046
I4348
sI3047
I4349
sI3048
I4350
sI3049
I4351
sI3050
I4352
sI3051
I4353
sI3052
I4354
sI3053
I4361
sI3054
I4362
sI3055
I4363
sI3056
I4364
sI3057
I4365
sI3058
I4366
sI3059
I4367
sI3060
I4368
sI3061
I4369
sI3062
I4370
sI3063
I4371
sI3064
I4372
sI3065
I4373
sI3066
I4374
sI3067
I4381
sI3068
I4382
sI3069
I4383
sI3070
I4384
sI3071
I4385
sI3072
I4386
sI3073
I4387
sI3074
I4388
sI3075
I4389
sI3076
I4390
sI3077
I4391
sI3078
I4392
sI3079
I4393
sI3080
I4394
sI3081
I4401
sI3082
I4402
sI3083
I4403
sI3084
I4404
sI3085
I4405
sI3086
I4406
sI3087
I4407
sI3088
I4408
sI3089
I4409
sI3090
I4410
sI3091
I4411
sI3092
I4412
sI3093
I4413
sI3094
I4414
sI3095
I4421
sI3096
I4422
sI3097
I4423
sI3098
I4424
sI3099
I4425
sI3100
I4426
sI3101
I4427
sI3102
I4428
sI3103
I4429
sI3104
I4430
sI3105
I4431
sI3106
I4432
sI3107
I4433
sI3108
I4434
sI3109
I4441
sI3110
I4442
sI3111
I4443
sI3112
I4444
sI3113
I4445
sI3114
I4446
sI3115
I4447
sI3116
I4448
sI3117
I4449
sI3118
I4450
sI3119
I4451
sI3120
I4452
sI3121
I4453
sI3122
I4454
sI3123
I4461
sI3124
I4462
sI3125
I4463
sI3126
I4464
sI3127
I4465
sI3128
I4466
sI3129
I4467
sI3130
I4468
sI3131
I4469
sI3132
I4470
sI3133
I4471
sI3134
I4472
sI3135
I4473
sI3136
I4474
sI3137
I4481
sI3138
I4482
sI3139
I4483
sI3140
I4484
sI3141
I4485
sI3142
I4486
sI3143
I4487
sI3144
I4488
sI3145
I4489
sI3146
I4490
sI3147
I4491
sI3148
I4492
sI3149
I4493
sI3150
I4494
sI3151
I4501
sI3152
I4502
sI3153
I4503
sI3154
I4504
sI3155
I4505
sI3156
I4506
sI3157
I4507
sI3158
I4508
sI3159
I4509
sI3160
I4510
sI3161
I4511
sI3162
I4512
sI3163
I4513
sI3164
I4514
sI3165
I4521
sI3166
I4522
sI3167
I4523
sI3168
I4524
sI3169
I4525
sI3170
I4526
sI3171
I4527
sI3172
I4528
sI3173
I4529
sI3174
I4530
sI3175
I4531
sI3176
I4532
sI3177
I4533
sI3178
I4534
sI3179
I4541
sI3180
I4542
sI3181
I4543
sI3182
I4544
sI3183
I4545
sI3184
I4546
sI3185
I4547
sI3186
I4548
sI3187
I4549
sI3188
I4550
sI3189
I4551
sI3190
I4552
sI3191
I4553
sI3192
I4554
sI3193
I4561
sI3194
I4562
sI3195
I4563
sI3196
I4564
sI3197
I4565
sI3198
I4566
sI3199
I4567
sI3200
I4568
sI3201
I4569
sI3202
I4570
sI3203
I4571
sI3204
I4572
sI3205
I4573
sI3206
I4574
sI3207
I4581
sI3208
I4582
sI3209
I4583
sI3210
I4584
sI3211
I4585
sI3212
I4586
sI3213
I4587
sI3214
I4588
sI3215
I4589
sI3216
I4590
sI3217
I4591
sI3218
I4592
sI3219
I4593
sI3220
I4594
sI3221
I4601
sI3222
I4602
sI3223
I4603
sI3224
I4604
sI3225
I4605
sI3226
I4606
sI3227
I4607
sI3228
I4608
sI3229
I4609
sI3230
I4610
sI3231
I4611
sI3232
I4612
sI3233
I4613
sI3234
I4614
sI3235
I4621
sI3236
I4622
sI3237
I4623
sI3238
I4624
sI3239
I4625
sI3240
I4626
sI3241
I4627
sI3242
I4628
sI3243
I4629
sI3244
I4630
sI3245
I4631
sI3246
I4632
sI3247
I4633
sI3248
I4634
sI3249
I4641
sI3250
I4642
sI3251
I4643
sI3252
I4644
sI3253
I4645
sI3254
I4646
sI3255
I4647
sI3256
I4648
sI3257
I4649
sI3258
I4650
sI3259
I4651
sI3260
I4652
sI3261
I4653
sI3262
I4654
sI3263
I4661
sI3264
I4662
sI3265
I4663
sI3266
I4664
sI3267
I4665
sI3268
I4666
sI3269
I4667
sI3270
I4668
sI3271
I5148
sI3272
I4670
sI3273
I4671
sI3274
I4672
sI3275
I4673
sI3276
I4674
sI3277
I4681
sI3278
I4682
sI3279
I4683
sI3280
I4684
sI3281
I4685
sI3282
I4686
sI3283
I4687
sI3284
I4688
sI3285
I4689
sI3286
I4690
sI3287
I4691
sI3288
I4692
sI3289
I4693
sI3290
I4694
sI3291
I4701
sI3292
I4702
sI3293
I4703
sI3294
I4704
sI3295
I4705
sI3296
I4706
sI3297
I4707
sI3298
I4708
sI3299
I4709
sI3300
I4710
sI3301
I4711
sI3302
I4712
sI3303
I4713
sI3304
I4714
sI3305
I4721
sI3306
I4722
sI3307
I4723
sI3308
I4724
sI3309
I4725
sI3310
I4726
sI3311
I4727
sI3312
I4728
sI3313
I4729
sI3314
I4730
sI3315
I4731
sI3316
I4732
sI3317
I4733
sI3318
I4734
sI3319
I4741
sI3320
I4742
sI3321
I4743
sI3322
I4744
sI3323
I4745
sI3324
I4746
sI3325
I4747
sI3326
I4748
sI3327
I4749
sI3328
I4750
sI3329
I4751
sI3330
I4752
sI3331
I4753
sI3332
I4754
sI3333
I4761
sI3334
I4762
sI3335
I4763
sI3336
I4764
sI3337
I4765
sI3338
I4766
sI3339
I4767
sI3340
I4768
sI3341
I4769
sI3342
I4770
sI3343
I4771
sI3344
I4772
sI3345
I4773
sI3346
I4774
sI3347
I4781
sI3348
I4782
sI3349
I4783
sI3350
I4784
sI3351
I4785
sI3352
I4786
sI3353
I4787
sI3354
I4788
sI3355
I4789
sI3356
I4790
sI3357
I4791
sI3358
I4792
sI3359
I4793
sI3360
I4794
sI3361
I4801
sI3362
I4802
sI3363
I4803
sI3364
I4804
sI3365
I4805
sI3366
I4806
sI3367
I4807
sI3368
I4808
sI3369
I4809
sI3370
I4810
sI3371
I4811
sI3372
I4812
sI3373
I4813
sI3374
I4814
sI3375
I4821
sI3376
I4822
sI3377
I4823
sI3378
I4824
sI3379
I4825
sI3380
I4826
sI3381
I4827
sI3382
I4828
sI3383
I4829
sI3384
I4830
sI3385
I4831
sI3386
I4832
sI3387
I4833
sI3388
I4834
sI3389
I4841
sI3390
I4842
sI3391
I4843
sI3392
I4844
sI3393
I4845
sI3394
I4846
sI3395
I4847
sI3396
I4848
sI3397
I4849
sI3398
I4850
sI3399
I4851
sI3400
I4852
sI3401
I4853
sI3402
I4854
sI3403
I4861
sI3404
I4862
sI3405
I4863
sI3406
I4864
sI3407
I4865
sI3408
I4866
sI3409
I4867
sI3410
I4868
sI3411
I4869
sI3412
I4870
sI3413
I4871
sI3414
I4872
sI3415
I4873
sI3416
I4874
sI3417
I4881
sI3418
I4882
sI3419
I4883
sI3420
I4884
sI3421
I4885
sI3422
I4886
sI3423
I4887
sI3424
I4888
sI3425
I4889
sI3426
I4890
sI3427
I4891
sI3428
I4892
sI3429
I4893
sI3430
I4894
sI3431
I4901
sI3432
I4902
sI3433
I4903
sI3434
I4904
sI3435
I4905
sI3436
I4906
sI3437
I4907
sI3438
I4908
sI3439
I4909
sI3440
I4910
sI3441
I4911
sI3442
I4912
sI3443
I4913
sI3444
I4914
sI3445
I4921
sI3446
I4922
sI3447
I4923
sI3448
I4924
sI3449
I4925
sI3450
I4926
sI3451
I4927
sI3452
I4928
sI3453
I4929
sI3454
I4930
sI3455
I4931
sI3456
I4932
sI3457
I4933
sI3458
I4934
sI3459
I4941
sI3460
I4942
sI3461
I4943
sI3462
I4944
sI3463
I4945
sI3464
I4946
sI3465
I4947
sI3466
I4948
sI3467
I4949
sI3468
I4950
sI3469
I4951
sI3470
I4952
sI3471
I4953
sI3472
I4954
sI3473
I4961
sI3474
I4962
sI3475
I4963
sI3476
I4964
sI3477
I4965
sI3478
I4966
sI3479
I4967
sI3480
I4968
sI3481
I4969
sI3482
I4970
sI3483
I4971
sI3484
I4972
sI3485
I4973
sI3486
I4974
sI3487
I4981
sI3488
I4982
sI3489
I4983
sI3490
I4984
sI3491
I4985
sI3492
I4986
sI3493
I4987
sI3494
I4988
sI3495
I4989
sI3496
I4990
sI3497
I4991
sI3498
I4992
sI3499
I4993
sI3500
I4994
sI3501
I5001
sI3502
I5002
sI3503
I5003
sI3504
I5004
sI3505
I5005
sI3506
I5006
sI3507
I5007
sI3508
I5008
sI3509
I5009
sI3510
I5010
sI3511
I5011
sI3512
I5012
sI3513
I5013
sI3514
I5014
sI3515
I5021
sI3516
I5022
sI3517
I5023
sI3518
I5024
sI3519
I5025
sI3520
I5026
sI3521
I5027
sI3522
I5028
sI3523
I5029
sI3524
I5030
sI3525
I5031
sI3526
I5032
sI3527
I5033
sI3528
I5034
sI3529
I5041
sI3530
I5042
sI3531
I5043
sI3532
I5044
sI3533
I5045
sI3534
I5046
sI3535
I5047
sI3536
I5048
sI3537
I5049
sI3538
I5050
sI3539
I5051
sI3540
I5052
sI3541
I5053
sI3542
I5054
sI3543
I5061
sI3544
I5062
sI3545
I5063
sI3546
I5064
sI3547
I5065
sI3548
I5066
sI3549
I5067
sI3550
I5068
sI3551
I5069
sI3552
I5070
sI3553
I5071
sI3554
I5072
sI3555
I5073
sI3556
I5074
sI3557
I5081
sI3558
I5082
sI3559
I5083
sI3560
I5084
sI3561
I5085
sI3562
I5086
sI3563
I5087
sI3564
I5088
sI3565
I5089
sI3566
I5090
sI3567
I5091
sI3568
I5092
sI3569
I5093
sI3570
I5094
sI3571
I5101
sI3572
I5102
sI3573
I5103
sI3574
I5104
sI3575
I5105
sI3576
I5106
sI3577
I5107
sI3578
I5108
sI3579
I5109
sI3580
I5110
sI3581
I5111
sI3582
I5112
sI3583
I5113
sI3584
I5114
sI3585
I5121
sI3586
I5122
sI3587
I5123
sI3588
I5124
sI3589
I5125
sI3590
I5126
sI3591
I5127
sI3592
I5128
sI3593
I5129
sI3594
I5130
sI3595
I5131
sI3596
I5132
sI3597
I5133
sI3598
I5134
sI3599
I5141
sI3600
I5142
sI3601
I5143
sI3602
I5144
sI3603
I5145
sI3604
I5146
sI3605
I5147
sI3606
I5236
sI3607
I5149
sI3608
I5150
sI3609
I5151
sI3610
I5152
sI3611
I5153
sI3612
I5154
sI3613
I5161
sI3614
I5162
sI3615
I5163
sI3616
I5164
sI3617
I2287
sI3618
I5166
sI3619
I5167
sI3620
I5168
sI3621
I5169
sI3622
I5170
sI3623
I5171
sI3624
I5172
sI3625
I5173
sI3626
I5174
sI3627
I5181
sI3628
I5182
sI3629
I5183
sI3630
I5184
sI3631
I5185
sI3632
I5186
sI3633
I5187
sI3634
I5188
sI3635
I5189
sI3636
I5190
sI3637
I5191
sI3638
I5192
sI3639
I5193
sI3640
I5194
sI3641
I5201
sI3642
I5202
sI3643
I5203
sI3644
I5204
sI3645
I5205
sI3646
I5206
sI3647
I5207
sI3648
I5208
sI3649
I5209
sI3650
I5210
sI3651
I5211
sI3652
I5212
sI3653
I5213
sI3654
I5214
sI3655
I5221
sI3656
I5222
sI3657
I5223
sI3658
I5224
sI3659
I5225
sI3660
I5226
sI3661
I5227
sI3662
I5228
sI3663
I5229
sI3664
I5230
sI3665
I5231
sI3666
I5232
sI3667
I5233
sI3668
I5234
sI3669
I5241
sI3670
I5242
sI3671
I5243
sI3672
I5244
sI3673
I5245
sI3674
I5246
sI3675
I5247
sI3676
I5248
sI3677
I5249
sI3678
I5250
sI3679
I5251
sI3680
I5252
sI3681
I5253
sI3682
I5254
sI3683
I5261
sI3684
I5262
sI3685
I5263
sI3686
I5264
sI3687
I5265
sI3688
I5266
sI3689
I5267
sI3690
I5268
sI3691
I5269
sI3692
I5270
sI3693
I5271
sI3694
I5272
sI3695
I5273
sI3696
I5274
sI3697
I5281
sI3698
I5282
sI3699
I5283
sI3700
I5284
sI3701
I5285
sI3702
I5286
sI3703
I5287
sI3704
I5288
sI3705
I5289
sI3706
I5290
sI3707
I5291
sI3708
I5292
sI3709
I5293
sI3710
I5294
sI3711
I5301
sI3712
I5302
sI3713
I5303
sI3714
I5304
sI3715
I5305
sI3716
I5306
sI3717
I5307
sI3718
I5308
sI3719
I5309
sI3720
I5310
sI3721
I5311
sI3722
I5312
sI3723
I5313
sI3724
I5314
sI3725
I5321
sI3726
I5322
sI3727
I5323
sI3728
I5324
sI3729
I5325
sI3730
I5326
sI3731
I5327
sI3732
I5328
sI3733
I5329
sI3734
I5330
sI3735
I5331
sI3736
I5332
sI3737
I5333
sI3738
I5334
sI3739
I5341
sI3740
I5342
sI3741
I5343
sI3742
I5344
sI3743
I5345
sI3744
I5346
sI3745
I5347
sI3746
I5348
sI3747
I5349
sI3748
I5350
sI3749
I5351
sI3750
I5352
sI3751
I5353
sI3752
I5354
sI3753
I5361
sI3754
I5362
sI3755
I5363
sI3756
I5364
sI3757
I5365
sI3758
I5366
sI3759
I5367
sI3760
I5368
sI3761
I5369
sI3762
I5370
sI3763
I5371
sI3764
I5372
sI3765
I5373
sI3766
I5374
sI3767
I5381
sI3768
I5382
sI3769
I5383
sI3770
I5384
sI3771
I5385
sI3772
I5386
sI3773
I5387
sI3774
I5388
sI3775
I5389
sI3776
I5390
sI3777
I5391
sI3778
I5392
sI3779
I5393
sI3780
I5394
sI3781
I5401
sI3782
I5402
sI3783
I5403
sI3784
I5404
sI3785
I5405
sI3786
I5406
sI3787
I5407
sI3788
I5408
sI3789
I5409
sI3790
I5410
sI3791
I5411
sI3792
I5412
sI3793
I5413
sI3794
I5414
sI3795
I5421
sI3796
I5422
sI3797
I5423
sI3798
I5424
sI3799
I5425
sI3800
I5426
sI3801
I5427
sI3802
I5428
sI3803
I5429
sI3804
I5430
sI3805
I5431
sI3806
I5432
sI3807
I5433
sI3808
I5434
sI3809
I5441
sI3810
I5442
sI3811
I5443
sI3812
I5444
sI3813
I5445
sI3814
I5446
sI3815
I5447
sI3816
I5448
sI3817
I5449
sI3818
I5450
sI3819
I5451
sI3820
I5452
sI3821
I5453
sI3822
I5454
sI3823
I5461
sI3824
I5462
sI3825
I5463
sI3826
I5464
sI3827
I5465
sI3828
I5466
sI3829
I5467
sI3830
I5468
sI3831
I5469
sI3832
I5470
sI3833
I5471
sI3834
I5472
sI3835
I5473
sI3836
I5474
sI3837
I5481
sI3838
I5482
sI3839
I5483
sI3840
I5484
sI3841
I5485
sI3842
I5486
sI3843
I5487
sI3844
I5488
sI3845
I5489
sI3846
I5490
sI3847
I5491
sI3848
I5492
sI3849
I5493
sI3850
I5494
sI3851
I5501
sI3852
I5502
sI3853
I5503
sI3854
I5504
sI3855
I5505
sI3856
I5506
sI3857
I5507
sI3858
I5508
sI3859
I5509
sI3860
I5510
sI3861
I5511
sI3862
I5512
sI3863
I5513
sI3864
I5514
sI3865
I5521
sI3866
I5522
sI3867
I5523
sI3868
I5524
sI3869
I5525
sI3870
I5526
sI3871
I5527
sI3872
I5528
sI3873
I5529
sI3874
I5530
sI3875
I5531
sI3876
I5532
sI3877
I5533
sI3878
I5534
sI3879
I5541
sI3880
I5542
sI3881
I5543
sI3882
I5544
sI3883
I5545
sI3884
I5546
sI3885
I5547
sI3886
I5548
sI3887
I5549
sI3888
I5550
sI3889
I5551
sI3890
I5552
sI3891
I5553
sI3892
I5554
sI3893
I5561
sI3894
I5562
sI3895
I5563
sI3896
I5564
sI3897
I5565
sI3898
I5566
sI3899
I5567
sI3900
I5568
sI3901
I5569
sI3902
I5570
sI3903
I5571
sI3904
I5572
sI3905
I5573
sI3906
I5574
sI3907
I5581
sI3908
I5582
sI3909
I5583
sI3910
I5584
sI3911
I5585
sI3912
I5586
sI3913
I5587
sI3914
I5588
sI3915
I5589
sI3916
I5590
sI3917
I5591
sI3918
I5592
sI3919
I5593
sI3920
I5594
sI3921
I5601
sI3922
I5602
sI3923
I5603
sI3924
I5604
sI3925
I5605
sI3926
I5606
sI3927
I5607
sI3928
I5608
sI3929
I5609
sI3930
I5610
sI3931
I5611
sI3932
I5612
sI3933
I5613
sI3934
I5614
sI3935
I5621
sI3936
I5622
sI3937
I5623
sI3938
I5624
sI3939
I5625
sI3940
I5626
sI3941
I5627
sI3942
I5628
sI3943
I5629
sI3944
I5630
sI3945
I5631
sI3946
I5632
sI3947
I5633
sI3948
I5634
sI3949
I15
sI3950
I16
sI3951
I17
sI3952
I35
sI3953
I36
sI3954
I37
sI3955
I55
sI3956
I56
sI3957
I57
sI3958
I75
sI3959
I76
sI3960
I77
sI3961
I95
sI3962
I96
sI3963
I97
sI3964
I115
sI3965
I116
sI3966
I117
sI3967
I135
sI3968
I136
sI3969
I137
sI3970
I155
sI3971
I156
sI3972
I157
sI3973
I175
sI3974
I176
sI3975
I177
sI3976
I195
sI3977
I196
sI3978
I197
sI3979
I215
sI3980
I216
sI3981
I217
sI3982
I235
sI3983
I236
sI3984
I237
sI3985
I255
sI3986
I256
sI3987
I257
sI3988
I275
sI3989
I276
sI3990
I277
sI3991
I295
sI3992
I296
sI3993
I297
sI3994
I315
sI3995
I316
sI3996
I317
sI3997
I335
sI3998
I336
sI3999
I337
sI4000
I355
sI4001
I356
sI4002
I357
sI4003
I375
sI4004
I376
sI4005
I377
sI4006
I395
sI4007
I396
sI4008
I397
sI4009
I415
sI4010
I416
sI4011
I417
sI4012
I435
sI4013
I436
sI4014
I437
sI4015
I455
sI4016
I456
sI4017
I457
sI4018
I475
sI4019
I476
sI4020
I477
sI4021
I495
sI4022
I496
sI4023
I497
sI4024
I515
sI4025
I516
sI4026
I517
sI4027
I535
sI4028
I536
sI4029
I537
sI4030
I555
sI4031
I556
sI4032
I557
sI4033
I575
sI4034
I576
sI4035
I577
sI4036
I595
sI4037
I596
sI4038
I597
sI4039
I615
sI4040
I616
sI4041
I617
sI4042
I635
sI4043
I636
sI4044
I637
sI4045
I655
sI4046
I656
sI4047
I657
sI4048
I675
sI4049
I676
sI4050
I677
sI4051
I695
sI4052
I696
sI4053
I697
sI4054
I715
sI4055
I716
sI4056
I717
sI4057
I735
sI4058
I736
sI4059
I737
sI4060
I755
sI4061
I756
sI4062
I757
sI4063
I775
sI4064
I776
sI4065
I777
sI4066
I795
sI4067
I796
sI4068
I797
sI4069
I815
sI4070
I816
sI4071
I817
sI4072
I835
sI4073
I836
sI4074
I837
sI4075
I855
sI4076
I856
sI4077
I857
sI4078
I875
sI4079
I876
sI4080
I877
sI4081
I895
sI4082
I896
sI4083
I897
sI4084
I915
sI4085
I916
sI4086
I917
sI4087
I935
sI4088
I936
sI4089
I937
sI4090
I955
sI4091
I956
sI4092
I957
sI4093
I975
sI4094
I976
sI4095
I977
sI4096
I995
sI4097
I996
sI4098
I997
sI4099
I1015
sI4100
I1016
sI4101
I1017
sI4102
I1035
sI4103
I1036
sI4104
I1037
sI4105
I1055
sI4106
I1056
sI4107
I1057
sI4108
I1075
sI4109
I1076
sI4110
I1077
sI4111
I2487
sI4112
I1096
sI4113
I1672
sI4114
I1115
sI4115
I1116
sI4116
I1117
sI4117
I1135
sI4118
I1136
sI4119
I1137
sI4120
I1155
sI4121
I1156
sI4122
I1157
sI4123
I1175
sI4124
I1176
sI4125
I1177
sI4126
I1195
sI4127
I1196
sI4128
I1197
sI4129
I1215
sI4130
I1216
sI4131
I1217
sI4132
I1235
sI4133
I1236
sI4134
I1237
sI4135
I1255
sI4136
I1256
sI4137
I1257
sI4138
I1275
sI4139
I1276
sI4140
I1277
sI4141
I1295
sI4142
I1296
sI4143
I1297
sI4144
I1315
sI4145
I1316
sI4146
I1317
sI4147
I1335
sI4148
I1336
sI4149
I1337
sI4150
I1355
sI4151
I1356
sI4152
I1357
sI4153
I1375
sI4154
I1376
sI4155
I1377
sI4156
I1395
sI4157
I1396
sI4158
I1397
sI4159
I1415
sI4160
I1416
sI4161
I1417
sI4162
I1435
sI4163
I1436
sI4164
I1437
sI4165
I1455
sI4166
I1456
sI4167
I1457
sI4168
I1475
sI4169
I1476
sI4170
I1477
sI4171
I1495
sI4172
I1496
sI4173
I1497
sI4174
I1515
sI4175
I1516
sI4176
I1517
sI4177
I1535
sI4178
I1536
sI4179
I1537
sI4180
I1555
sI4181
I1556
sI4182
I1557
sI4183
I1575
sI4184
I1576
sI4185
I1577
sI4186
I1595
sI4187
I1596
sI4188
I1597
sI4189
I1615
sI4190
I1616
sI4191
I1617
sI4192
I1635
sI4193
I1636
sI4194
I1637
sI4195
I1655
sI4196
I1656
sI4197
I1657
sI4198
I1675
sI4199
I1676
sI4200
I1677
sI4201
I1695
sI4202
I1696
sI4203
I1697
sI4204
I1715
sI4205
I1716
sI4206
I1717
sI4207
I1735
sI4208
I1736
sI4209
I1737
sI4210
I1755
sI4211
I1756
sI4212
I1757
sI4213
I1775
sI4214
I1776
sI4215
I1777
sI4216
I1795
sI4217
I1796
sI4218
I2839
sI4219
I1815
sI4220
I1816
sI4221
I1817
sI4222
I1835
sI4223
I1836
sI4224
I1837
sI4225
I1855
sI4226
I1856
sI4227
I1857
sI4228
I1875
sI4229
I1876
sI4230
I1877
sI4231
I1895
sI4232
I1896
sI4233
I1897
sI4234
I1848
sI4235
I1916
sI4236
I1917
sI4237
I1935
sI4238
I1936
sI4239
I1937
sI4240
I1955
sI4241
I1956
sI4242
I1957
sI4243
I1975
sI4244
I1976
sI4245
I1977
sI4246
I1995
sI4247
I1996
sI4248
I1997
sI4249
I2015
sI4250
I2016
sI4251
I2017
sI4252
I2035
sI4253
I2036
sI4254
I2037
sI4255
I2055
sI4256
I2056
sI4257
I2057
sI4258
I2075
sI4259
I2076
sI4260
I2077
sI4261
I2095
sI4262
I2096
sI4263
I2097
sI4264
I2115
sI4265
I2116
sI4266
I2117
sI4267
I2135
sI4268
I2136
sI4269
I2137
sI4270
I2155
sI4271
I2156
sI4272
I2157
sI4273
I2175
sI4274
I2176
sI4275
I2177
sI4276
I2195
sI4277
I2196
sI4278
I2197
sI4279
I2215
sI4280
I2216
sI4281
I2217
sI4282
I2235
sI4283
I2236
sI4284
I2237
sI4285
I2255
sI4286
I2256
sI4287
I2257
sI4288
I2275
sI4289
I2276
sI4290
I2277
sI4291
I2295
sI4292
I2296
sI4293
I2297
sI4294
I2315
sI4295
I2316
sI4296
I2317
sI4297
I2335
sI4298
I2336
sI4299
I2337
sI4300
I2355
sI4301
I2356
sI4302
I2357
sI4303
I2375
sI4304
I2376
sI4305
I2377
sI4306
I2395
sI4307
I2396
sI4308
I2397
sI4309
I2415
sI4310
I2416
sI4311
I2417
sI4312
I2435
sI4313
I2436
sI4314
I2437
sI4315
I2455
sI4316
I2456
sI4317
I2457
sI4318
I2475
sI4319
I2476
sI4320
I2477
sI4321
I2495
sI4322
I2496
sI4323
I2497
sI4324
I2515
sI4325
I2516
sI4326
I2517
sI4327
I2535
sI4328
I2536
sI4329
I2537
sI4330
I2555
sI4331
I2556
sI4332
I2557
sI4333
I2575
sI4334
I2576
sI4335
I2577
sI4336
I2595
sI4337
I2596
sI4338
I2597
sI4339
I2615
sI4340
I2616
sI4341
I2617
sI4342
I2635
sI4343
I2636
sI4344
I2637
sI4345
I2655
sI4346
I2656
sI4347
I2657
sI4348
I2675
sI4349
I2676
sI4350
I2677
sI4351
I2695
sI4352
I2696
sI4353
I2697
sI4354
I2715
sI4355
I2716
sI4356
I2717
sI4357
I2735
sI4358
I2736
sI4359
I2737
sI4360
I2755
sI4361
I2756
sI4362
I2757
sI4363
I2775
sI4364
I2776
sI4365
I2777
sI4366
I2795
sI4367
I2796
sI4368
I2797
sI4369
I2815
sI4370
I2816
sI4371
I2817
sI4372
I2835
sI4373
I2836
sI4374
I2837
sI4375
I2855
sI4376
I2856
sI4377
I2857
sI4378
I2875
sI4379
I2876
sI4380
I2877
sI4381
I2895
sI4382
I2896
sI4383
I2897
sI4384
I2915
sI4385
I2916
sI4386
I2917
sI4387
I2935
sI4388
I2936
sI4389
I2937
sI4390
I2955
sI4391
I2956
sI4392
I2957
sI4393
I2975
sI4394
I2976
sI4395
I2977
sI4396
I2995
sI4397
I2996
sI4398
I2997
sI4399
I3015
sI4400
I3016
sI4401
I3017
sI4402
I3035
sI4403
I3036
sI4404
I3037
sI4405
I3055
sI4406
I3056
sI4407
I3057
sI4408
I3075
sI4409
I3076
sI4410
I3077
sI4411
I3095
sI4412
I3096
sI4413
I3097
sI4414
I3115
sI4415
I3116
sI4416
I3117
sI4417
I3135
sI4418
I3136
sI4419
I3137
sI4420
I3155
sI4421
I3156
sI4422
I3157
sI4423
I3175
sI4424
I3176
sI4425
I3177
sI4426
I3195
sI4427
I3196
sI4428
I3197
sI4429
I3215
sI4430
I3216
sI4431
I3217
sI4432
I3235
sI4433
I3236
sI4434
I3237
sI4435
I3255
sI4436
I3256
sI4437
I3257
sI4438
I3275
sI4439
I3276
sI4440
I3277
sI4441
I3295
sI4442
I3296
sI4443
I3297
sI4444
I3315
sI4445
I3316
sI4446
I3317
sI4447
I3335
sI4448
I3336
sI4449
I3337
sI4450
I3355
sI4451
I3356
sI4452
I3357
sI4453
I3375
sI4454
I3376
sI4455
I3377
sI4456
I3395
sI4457
I3396
sI4458
I3397
sI4459
I3415
sI4460
I3416
sI4461
I3417
sI4462
I3435
sI4463
I3436
sI4464
I3437
sI4465
I3455
sI4466
I3456
sI4467
I3457
sI4468
I3475
sI4469
I3476
sI4470
I3477
sI4471
I3495
sI4472
I3496
sI4473
I3497
sI4474
I3515
sI4475
I3516
sI4476
I3517
sI4477
I3535
sI4478
I3536
sI4479
I3537
sI4480
I3555
sI4481
I3556
sI4482
I3557
sI4483
I3575
sI4484
I3576
sI4485
I3577
sI4486
I3595
sI4487
I3596
sI4488
I3597
sI4489
I3615
sI4490
I3616
sI4491
I3617
sI4492
I3635
sI4493
I3636
sI4494
I3637
sI4495
I3655
sI4496
I3656
sI4497
I3657
sI4498
I3675
sI4499
I3676
sI4500
I3677
sI4501
I3695
sI4502
I3696
sI4503
I3697
sI4504
I3715
sI4505
I3716
sI4506
I3717
sI4507
I3735
sI4508
I3736
sI4509
I3737
sI4510
I3755
sI4511
I3756
sI4512
I3757
sI4513
I3775
sI4514
I3776
sI4515
I3777
sI4516
I3795
sI4517
I3796
sI4518
I3797
sI4519
I3815
sI4520
I3816
sI4521
I3817
sI4522
I3835
sI4523
I3836
sI4524
I3837
sI4525
I3855
sI4526
I3856
sI4527
I3857
sI4528
I3875
sI4529
I3876
sI4530
I3877
sI4531
I3895
sI4532
I3896
sI4533
I3897
sI4534
I3915
sI4535
I3916
sI4536
I3917
sI4537
I3935
sI4538
I3936
sI4539
I3937
sI4540
I3955
sI4541
I3956
sI4542
I3957
sI4543
I3975
sI4544
I3976
sI4545
I3977
sI4546
I3995
sI4547
I3996
sI4548
I3997
sI4549
I4015
sI4550
I4016
sI4551
I4017
sI4552
I4035
sI4553
I4036
sI4554
I4037
sI4555
I4055
sI4556
I4056
sI4557
I4057
sI4558
I4075
sI4559
I4076
sI4560
I4077
sI4561
I4095
sI4562
I4096
sI4563
I4097
sI4564
I4115
sI4565
I4116
sI4566
I4117
sI4567
I4135
sI4568
I4136
sI4569
I4137
sI4570
I4155
sI4571
I4156
sI4572
I4157
sI4573
I4175
sI4574
I4176
sI4575
I4177
sI4576
I4195
sI4577
I4196
sI4578
I4197
sI4579
I4215
sI4580
I4216
sI4581
I4217
sI4582
I4235
sI4583
I4236
sI4584
I4237
sI4585
I4255
sI4586
I4256
sI4587
I4257
sI4588
I4275
sI4589
I4276
sI4590
I4277
sI4591
I4295
sI4592
I4296
sI4593
I4297
sI4594
I4315
sI4595
I4316
sI4596
I4317
sI4597
I4335
sI4598
I4336
sI4599
I4337
sI4600
I4355
sI4601
I4356
sI4602
I4357
sI4603
I4375
sI4604
I4376
sI4605
I4377
sI4606
I4395
sI4607
I4396
sI4608
I4397
sI4609
I4415
sI4610
I4416
sI4611
I4417
sI4612
I4435
sI4613
I4436
sI4614
I4437
sI4615
I4455
sI4616
I4456
sI4617
I4457
sI4618
I4475
sI4619
I4476
sI4620
I4477
sI4621
I4495
sI4622
I4496
sI4623
I4497
sI4624
I4515
sI4625
I4516
sI4626
I4517
sI4627
I4535
sI4628
I4536
sI4629
I4537
sI4630
I4555
sI4631
I4556
sI4632
I4557
sI4633
I4575
sI4634
I4576
sI4635
I4577
sI4636
I4595
sI4637
I4596
sI4638
I4597
sI4639
I4615
sI4640
I4616
sI4641
I4617
sI4642
I4635
sI4643
I4636
sI4644
I4637
sI4645
I4655
sI4646
I4656
sI4647
I4657
sI4648
I4675
sI4649
I4676
sI4650
I4677
sI4651
I4695
sI4652
I4696
sI4653
I4697
sI4654
I4715
sI4655
I4716
sI4656
I4717
sI4657
I4735
sI4658
I4736
sI4659
I4737
sI4660
I4755
sI4661
I4756
sI4662
I4757
sI4663
I4775
sI4664
I4776
sI4665
I4777
sI4666
I4795
sI4667
I4796
sI4668
I4797
sI4669
I4815
sI4670
I4816
sI4671
I4817
sI4672
I4835
sI4673
I4836
sI4674
I4837
sI4675
I4855
sI4676
I4856
sI4677
I4857
sI4678
I4875
sI4679
I4876
sI4680
I4877
sI4681
I4895
sI4682
I4896
sI4683
I4897
sI4684
I4915
sI4685
I4916
sI4686
I4917
sI4687
I4935
sI4688
I4936
sI4689
I4937
sI4690
I4955
sI4691
I4956
sI4692
I4957
sI4693
I4975
sI4694
I4976
sI4695
I4977
sI4696
I4995
sI4697
I4996
sI4698
I4997
sI4699
I5015
sI4700
I5016
sI4701
I5017
sI4702
I5035
sI4703
I5036
sI4704
I5037
sI4705
I5055
sI4706
I5056
sI4707
I5057
sI4708
I5075
sI4709
I5076
sI4710
I5077
sI4711
I5095
sI4712
I5096
sI4713
I5097
sI4714
I5115
sI4715
I5116
sI4716
I5117
sI4717
I5135
sI4718
I5136
sI4719
I5137
sI4720
I5155
sI4721
I5156
sI4722
I5157
sI4723
I5175
sI4724
I5176
sI4725
I5177
sI4726
I5195
sI4727
I5196
sI4728
I5197
sI4729
I5215
sI4730
I5216
sI4731
I5217
sI4732
I5235
sI4733
I3370
sI4734
I5237
sI4735
I5255
sI4736
I5256
sI4737
I5257
sI4738
I5275
sI4739
I5276
sI4740
I5277
sI4741
I5295
sI4742
I5296
sI4743
I5297
sI4744
I5315
sI4745
I5316
sI4746
I5317
sI4747
I5335
sI4748
I5336
sI4749
I5337
sI4750
I5355
sI4751
I5356
sI4752
I5357
sI4753
I5375
sI4754
I5376
sI4755
I5377
sI4756
I5395
sI4757
I5396
sI4758
I5397
sI4759
I5415
sI4760
I5416
sI4761
I5417
sI4762
I5435
sI4763
I5436
sI4764
I5437
sI4765
I5455
sI4766
I5456
sI4767
I5457
sI4768
I5475
sI4769
I5476
sI4770
I5477
sI4771
I5495
sI4772
I5496
sI4773
I5497
sI4774
I5515
sI4775
I3839
sI4776
I5517
sI4777
I5535
sI4778
I5536
sI4779
I5537
sI4780
I5555
sI4781
I5556
sI4782
I5557
sI4783
I5575
sI4784
I5576
sI4785
I5577
sI4786
I5595
sI4787
I5596
sI4788
I5597
sI4789
I5615
sI4790
I5616
sI4791
I5617
sI4792
I5635
sI4793
I18
sI4794
I19
sI4795
I20
sI4796
I38
sI4797
I39
sI4798
I40
sI4799
I58
sI4800
I59
sI4801
I60
sI4802
I78
sI4803
I79
sI4804
I80
sI4805
I98
sI4806
I99
sI4807
I100
sI4808
I118
sI4809
I119
sI4810
I120
sI4811
I138
sI4812
I139
sI4813
I140
sI4814
I158
sI4815
I159
sI4816
I160
sI4817
I178
sI4818
I179
sI4819
I180
sI4820
I198
sI4821
I199
sI4822
I200
sI4823
I218
sI4824
I219
sI4825
I220
sI4826
I238
sI4827
I239
sI4828
I240
sI4829
I258
sI4830
I259
sI4831
I260
sI4832
I278
sI4833
I279
sI4834
I280
sI4835
I298
sI4836
I2990
sI4837
I300
sI4838
I318
sI4839
I319
sI4840
I320
sI4841
I338
sI4842
I339
sI4843
I340
sI4844
I358
sI4845
I359
sI4846
I360
sI4847
I378
sI4848
I379
sI4849
I380
sI4850
I398
sI4851
I399
sI4852
I400
sI4853
I418
sI4854
I419
sI4855
I420
sI4856
I438
sI4857
I439
sI4858
I440
sI4859
I458
sI4860
I459
sI4861
I460
sI4862
I478
sI4863
I479
sI4864
I480
sI4865
I498
sI4866
I499
sI4867
I500
sI4868
I518
sI4869
I519
sI4870
I520
sI4871
I538
sI4872
I539
sI4873
I540
sI4874
I558
sI4875
I559
sI4876
I560
sI4877
I578
sI4878
I579
sI4879
I580
sI4880
I598
sI4881
I599
sI4882
I600
sI4883
I1250
sI4884
I619
sI4885
I620
sI4886
I638
sI4887
I639
sI4888
I640
sI4889
I658
sI4890
I659
sI4891
I660
sI4892
I678
sI4893
I679
sI4894
I680
sI4895
I698
sI4896
I699
sI4897
I700
sI4898
I718
sI4899
I719
sI4900
I720
sI4901
I738
sI4902
I739
sI4903
I740
sI4904
I758
sI4905
I759
sI4906
I760
sI4907
I778
sI4908
I779
sI4909
I780
sI4910
I798
sI4911
I799
sI4912
I800
sI4913
I818
sI4914
I819
sI4915
I820
sI4916
I838
sI4917
I839
sI4918
I840
sI4919
I858
sI4920
I859
sI4921
I860
sI4922
I878
sI4923
I879
sI4924
I880
sI4925
I898
sI4926
I899
sI4927
I900
sI4928
I918
sI4929
I919
sI4930
I920
sI4931
I938
sI4932
I939
sI4933
I940
sI4934
I958
sI4935
I959
sI4936
I960
sI4937
I978
sI4938
I979
sI4939
I980
sI4940
I998
sI4941
I999
sI4942
I1000
sI4943
I1018
sI4944
I1019
sI4945
I1020
sI4946
I1038
sI4947
I1039
sI4948
I1040
sI4949
I1058
sI4950
I1059
sI4951
I1060
sI4952
I1078
sI4953
I1079
sI4954
I1080
sI4955
I1098
sI4956
I1099
sI4957
I1100
sI4958
I1118
sI4959
I1119
sI4960
I1120
sI4961
I1138
sI4962
I1139
sI4963
I1140
sI4964
I1158
sI4965
I1159
sI4966
I1160
sI4967
I1178
sI4968
I1179
sI4969
I1180
sI4970
I1198
sI4971
I1199
sI4972
I1200
sI4973
I1218
sI4974
I1219
sI4975
I1220
sI4976
I1238
sI4977
I1239
sI4978
I1240
sI4979
I1258
sI4980
I1259
sI4981
I1260
sI4982
I1278
sI4983
I1279
sI4984
I1280
sI4985
I1298
sI4986
I1299
sI4987
I1300
sI4988
I1318
sI4989
I1319
sI4990
I1320
sI4991
I1338
sI4992
I1339
sI4993
I1340
sI4994
I1358
sI4995
I1359
sI4996
I1360
sI4997
I1378
sI4998
I1379
sI4999
I1380
sI5000
I1398
sI5001
I1399
sI5002
I1400
sI5003
I1418
sI5004
I1419
sI5005
I1420
sI5006
I1438
sI5007
I1439
sI5008
I1440
sI5009
I1458
sI5010
I1459
sI5011
I1460
sI5012
I1478
sI5013
I1479
sI5014
I1480
sI5015
I1498
sI5016
I1499
sI5017
I1500
sI5018
I1518
sI5019
I1519
sI5020
I1520
sI5021
I1538
sI5022
I1539
sI5023
I1540
sI5024
I1558
sI5025
I1559
sI5026
I1560
sI5027
I1578
sI5028
I1579
sI5029
I1580
sI5030
I1598
sI5031
I1599
sI5032
I1600
sI5033
I1618
sI5034
I1619
sI5035
I1620
sI5036
I1638
sI5037
I1639
sI5038
I1640
sI5039
I1658
sI5040
I1659
sI5041
I1660
sI5042
I1678
sI5043
I1679
sI5044
I1680
sI5045
I1698
sI5046
I1699
sI5047
I1700
sI5048
I1718
sI5049
I1719
sI5050
I1720
sI5051
I1738
sI5052
I1739
sI5053
I1740
sI5054
I1758
sI5055
I1759
sI5056
I1760
sI5057
I1778
sI5058
I1779
sI5059
I1780
sI5060
I1798
sI5061
I1799
sI5062
I1800
sI5063
I1818
sI5064
I1819
sI5065
I1820
sI5066
I1838
sI5067
I1839
sI5068
I1840
sI5069
I1858
sI5070
I1859
sI5071
I1860
sI5072
I1878
sI5073
I1879
sI5074
I1880
sI5075
I1898
sI5076
I1899
sI5077
I1900
sI5078
I1918
sI5079
I1919
sI5080
I1920
sI5081
I1938
sI5082
I1939
sI5083
I1940
sI5084
I1958
sI5085
I1959
sI5086
I1960
sI5087
I1978
sI5088
I1979
sI5089
I1980
sI5090
I1998
sI5091
I1999
sI5092
I2000
sI5093
I2018
sI5094
I2019
sI5095
I2020
sI5096
I2038
sI5097
I2039
sI5098
I2040
sI5099
I2058
sI5100
I2059
sI5101
I2060
sI5102
I2078
sI5103
I2079
sI5104
I2080
sI5105
I2098
sI5106
I2099
sI5107
I2100
sI5108
I2118
sI5109
I2119
sI5110
I2120
sI5111
I2138
sI5112
I2139
sI5113
I2140
sI5114
I2158
sI5115
I2159
sI5116
I2160
sI5117
I2178
sI5118
I2179
sI5119
I2180
sI5120
I2198
sI5121
I2199
sI5122
I2200
sI5123
I2218
sI5124
I2219
sI5125
I2220
sI5126
I2238
sI5127
I2239
sI5128
I2240
sI5129
I2258
sI5130
I2259
sI5131
I2260
sI5132
I2278
sI5133
I2279
sI5134
I2280
sI5135
I2298
sI5136
I2299
sI5137
I2300
sI5138
I2318
sI5139
I2319
sI5140
I2320
sI5141
I2338
sI5142
I2339
sI5143
I2340
sI5144
I2358
sI5145
I2359
sI5146
I2360
sI5147
I2378
sI5148
I2379
sI5149
I2380
sI5150
I2398
sI5151
I2399
sI5152
I2400
sI5153
I2418
sI5154
I2419
sI5155
I2420
sI5156
I2438
sI5157
I2439
sI5158
I2440
sI5159
I2458
sI5160
I2459
sI5161
I2460
sI5162
I2478
sI5163
I2479
sI5164
I2480
sI5165
I2498
sI5166
I2499
sI5167
I2500
sI5168
I2518
sI5169
I2519
sI5170
I2520
sI5171
I2538
sI5172
I2539
sI5173
I2540
sI5174
I2558
sI5175
I2559
sI5176
I2560
sI5177
I2578
sI5178
I2579
sI5179
I2580
sI5180
I2598
sI5181
I2599
sI5182
I2600
sI5183
I2618
sI5184
I2619
sI5185
I2620
sI5186
I2638
sI5187
I2639
sI5188
I2640
sI5189
I2658
sI5190
I2659
sI5191
I2660
sI5192
I2678
sI5193
I2679
sI5194
I2680
sI5195
I2698
sI5196
I2699
sI5197
I2700
sI5198
I2718
sI5199
I2719
sI5200
I2720
sI5201
I2738
sI5202
I2739
sI5203
I2740
sI5204
I2758
sI5205
I2759
sI5206
I2760
sI5207
I2778
sI5208
I2779
sI5209
I2780
sI5210
I2798
sI5211
I2799
sI5212
I2800
sI5213
I2818
sI5214
I2819
sI5215
I2820
sI5216
I2838
sI5217
I5165
sI5218
I2840
sI5219
I2858
sI5220
I2859
sI5221
I2860
sI5222
I2878
sI5223
I2879
sI5224
I2880
sI5225
I2898
sI5226
I2899
sI5227
I2900
sI5228
I2918
sI5229
I2919
sI5230
I2920
sI5231
I2938
sI5232
I2939
sI5233
I2940
sI5234
I2958
sI5235
I2959
sI5236
I2960
sI5237
I2978
sI5238
I2979
sI5239
I2980
sI5240
I2998
sI5241
I2999
sI5242
I3000
sI5243
I3018
sI5244
I3019
sI5245
I3020
sI5246
I3038
sI5247
I3039
sI5248
I3040
sI5249
I3369
sI5250
I3059
sI5251
I3060
sI5252
I3078
sI5253
I3079
sI5254
I3080
sI5255
I3098
sI5256
I3099
sI5257
I3100
sI5258
I3118
sI5259
I3119
sI5260
I3120
sI5261
I3138
sI5262
I3139
sI5263
I3140
sI5264
I3158
sI5265
I3159
sI5266
I3160
sI5267
I3178
sI5268
I3179
sI5269
I3180
sI5270
I3198
sI5271
I3199
sI5272
I3200
sI5273
I3218
sI5274
I3219
sI5275
I3220
sI5276
I3238
sI5277
I3239
sI5278
I3240
sI5279
I3258
sI5280
I3259
sI5281
I3260
sI5282
I3278
sI5283
I3279
sI5284
I3280
sI5285
I3298
sI5286
I3299
sI5287
I3300
sI5288
I3318
sI5289
I3319
sI5290
I3320
sI5291
I3338
sI5292
I3339
sI5293
I3340
sI5294
I3358
sI5295
I3359
sI5296
I3360
sI5297
I3378
sI5298
I3379
sI5299
I3380
sI5300
I3398
sI5301
I3399
sI5302
I3400
sI5303
I3418
sI5304
I3419
sI5305
I3420
sI5306
I3438
sI5307
I3439
sI5308
I3440
sI5309
I3458
sI5310
I3459
sI5311
I3460
sI5312
I3478
sI5313
I3479
sI5314
I3480
sI5315
I3498
sI5316
I3499
sI5317
I3500
sI5318
I3518
sI5319
I3519
sI5320
I3520
sI5321
I3538
sI5322
I3539
sI5323
I3540
sI5324
I3558
sI5325
I3559
sI5326
I3560
sI5327
I3578
sI5328
I3579
sI5329
I3580
sI5330
I3598
sI5331
I3599
sI5332
I3600
sI5333
I3618
sI5334
I3619
sI5335
I3620
sI5336
I3638
sI5337
I3639
sI5338
I3640
sI5339
I3658
sI5340
I3659
sI5341
I3660
sI5342
I3678
sI5343
I3679
sI5344
I3680
sI5345
I3698
sI5346
I3699
sI5347
I3700
sI5348
I3718
sI5349
I3719
sI5350
I3720
sI5351
I3738
sI5352
I3739
sI5353
I3740
sI5354
I3758
sI5355
I3759
sI5356
I3760
sI5357
I3778
sI5358
I3779
sI5359
I3780
sI5360
I3798
sI5361
I3799
sI5362
I3800
sI5363
I3818
sI5364
I3819
sI5365
I3820
sI5366
I3838
sI5367
I5516
sI5368
I3840
sI5369
I3858
sI5370
I3859
sI5371
I3860
sI5372
I3878
sI5373
I3879
sI5374
I3880
sI5375
I3898
sI5376
I3899
sI5377
I3900
sI5378
I3918
sI5379
I3919
sI5380
I3920
sI5381
I3938
sI5382
I3939
sI5383
I3940
sI5384
I3958
sI5385
I3959
sI5386
I3960
sI5387
I3978
sI5388
I3979
sI5389
I3980
sI5390
I3998
sI5391
I3999
sI5392
I4000
sI5393
I4018
sI5394
I4019
sI5395
I4020
sI5396
I4038
sI5397
I4039
sI5398
I4040
sI5399
I4058
sI5400
I4059
sI5401
I4060
sI5402
I4078
sI5403
I4079
sI5404
I4080
sI5405
I4098
sI5406
I4099
sI5407
I4100
sI5408
I4118
sI5409
I4119
sI5410
I4120
sI5411
I4138
sI5412
I4139
sI5413
I4140
sI5414
I4158
sI5415
I4159
sI5416
I4160
sI5417
I4178
sI5418
I4179
sI5419
I4180
sI5420
I4198
sI5421
I4199
sI5422
I4200
sI5423
I4218
sI5424
I4219
sI5425
I4220
sI5426
I4238
sI5427
I4239
sI5428
I4240
sI5429
I4258
sI5430
I4259
sI5431
I4260
sI5432
I4278
sI5433
I4279
sI5434
I4280
sI5435
I4298
sI5436
I4299
sI5437
I4300
sI5438
I4318
sI5439
I4319
sI5440
I4320
sI5441
I4338
sI5442
I4339
sI5443
I4340
sI5444
I4358
sI5445
I4359
sI5446
I4360
sI5447
I4378
sI5448
I4379
sI5449
I4380
sI5450
I4398
sI5451
I4399
sI5452
I4400
sI5453
I4418
sI5454
I4419
sI5455
I4420
sI5456
I4438
sI5457
I4439
sI5458
I4440
sI5459
I4458
sI5460
I4459
sI5461
I4460
sI5462
I4478
sI5463
I4479
sI5464
I4480
sI5465
I4498
sI5466
I4499
sI5467
I4500
sI5468
I4518
sI5469
I4519
sI5470
I4520
sI5471
I4538
sI5472
I4539
sI5473
I4540
sI5474
I4558
sI5475
I4559
sI5476
I4560
sI5477
I4578
sI5478
I4579
sI5479
I4580
sI5480
I4598
sI5481
I4599
sI5482
I4600
sI5483
I4618
sI5484
I4619
sI5485
I4620
sI5486
I4638
sI5487
I4639
sI5488
I4640
sI5489
I4658
sI5490
I4659
sI5491
I4660
sI5492
I4678
sI5493
I4679
sI5494
I4680
sI5495
I4698
sI5496
I4699
sI5497
I4700
sI5498
I4718
sI5499
I4719
sI5500
I4720
sI5501
I4738
sI5502
I4739
sI5503
I4740
sI5504
I4758
sI5505
I4759
sI5506
I4760
sI5507
I4778
sI5508
I4779
sI5509
I4780
sI5510
I4798
sI5511
I4799
sI5512
I4800
sI5513
I4818
sI5514
I4819
sI5515
I4820
sI5516
I4838
sI5517
I4839
sI5518
I4840
sI5519
I4858
sI5520
I4859
sI5521
I4860
sI5522
I4878
sI5523
I4879
sI5524
I4880
sI5525
I4898
sI5526
I4899
sI5527
I4900
sI5528
I4918
sI5529
I4919
sI5530
I4920
sI5531
I4938
sI5532
I4939
sI5533
I4940
sI5534
I4958
sI5535
I4959
sI5536
I4960
sI5537
I4978
sI5538
I4979
sI5539
I4980
sI5540
I4998
sI5541
I4999
sI5542
I5000
sI5543
I5018
sI5544
I5019
sI5545
I5020
sI5546
I5038
sI5547
I5039
sI5548
I5040
sI5549
I5058
sI5550
I5059
sI5551
I5060
sI5552
I5078
sI5553
I5079
sI5554
I5080
sI5555
I5098
sI5556
I5099
sI5557
I5100
sI5558
I5118
sI5559
I5119
sI5560
I5120
sI5561
I5138
sI5562
I5139
sI5563
I5140
sI5564
I5158
sI5565
I5159
sI5566
I5160
sI5567
I5178
sI5568
I5179
sI5569
I5180
sI5570
I5198
sI5571
I5199
sI5572
I5200
sI5573
I5218
sI5574
I5219
sI5575
I5220
sI5576
I5238
sI5577
I5239
sI5578
I5240
sI5579
I5258
sI5580
I5259
sI5581
I5260
sI5582
I5278
sI5583
I5279
sI5584
I5280
sI5585
I5298
sI5586
I5299
sI5587
I5300
sI5588
I5318
sI5589
I5319
sI5590
I5320
sI5591
I5338
sI5592
I5339
sI5593
I5340
sI5594
I5358
sI5595
I5359
sI5596
I5360
sI5597
I5378
sI5598
I5379
sI5599
I5380
sI5600
I5398
sI5601
I5399
sI5602
I5400
sI5603
I5418
sI5604
I5419
sI5605
I5420
sI5606
I5438
sI5607
I5439
sI5608
I5440
sI5609
I5458
sI5610
I5459
sI5611
I5460
sI5612
I5478
sI5613
I5479
sI5614
I5480
sI5615
I5498
sI5616
I5499
sI5617
I5500
sI5618
I5518
sI5619
I5519
sI5620
I5520
sI5621
I5538
sI5622
I5539
sI5623
I5540
sI5624
I5558
sI5625
I5559
sI5626
I5560
sI5627
I5578
sI5628
I5579
sI5629
I5580
sI5630
I5598
sI5631
I5599
sI5632
I5600
sI5633
I5618
sI5634
I5619
sI5635
I5620
s.