(dp0
I3
I1
sI4
I2
sI5
I3
sI7
I4
sI9
I5
sI10
I6
sI11
I7
sI12
I8
sI13
I9
sI14
I10
sI15
I11
sI16
I12
sI17
I13
sI19
I14
sI20
I15
sI22
I16
sI23
I17
sI24
I18
sI25
I19
sI27
I20
sI28
I21
sI30
I22
sI32
I23
sI33
I24
sI35
I25
sI38
I26
sI39
I27
sI40
I28
sI41
I29
sI43
I30
sI44
I31
sI46
I32
sI49
I33
sI51
I34
sI52
I35
sI53
I36
sI55
I37
sI59
I38
sI60
I39
sI62
I40
sI63
I41
sI66
I42
sI68
I43
sI69
I44
sI70
I45
sI72
I46
sI73
I47
sI75
I48
sI76
I49
sI77
I50
sI79
I51
sI80
I52
sI81
I53
sI82
I54
sI84
I55
sI86
I56
sI88
I57
sI89
I58
sI91
I59
sI92
I60
sI93
I61
sI95
I62
sI96
I63
sI97
I64
sI98
I65
sI100
I66
sI101
I67
sI102
I68
sI103
I69
sI106
I70
sI110
I71
sI111
I72
sI112
I73
sI113
I74
sI114
I75
sI115
I76
sI116
I77
sI117
I78
sI118
I79
sI119
I80
sI120
I81
sI122
I82
sI123
I83
sI124
I84
sI126
I85
sI127
I86
sI128
I87
sI130
I88
sI131
I89
sI132
I90
sI133
I91
sI136
I92
sI137
I93
sI138
I94
sI141
I95
sI142
I96
sI143
I97
sI144
I98
sI145
I99
sI146
I100
sI147
I101
sI150
I102
sI151
I103
sI153
I104
sI154
I105
sI155
I106
sI157
I107
sI158
I108
sI159
I109
sI160
I110
sI162
I111
sI163
I112
sI164
I113
sI165
I114
sI167
I115
sI168
I116
sI169
I2041
sI170
I117
sI173
I118
sI174
I119
sI175
I120
sI176
I121
sI178
I122
sI180
I123
sI182
I124
sI183
I125
sI184
I126
sI185
I127
sI186
I128
sI187
I129
sI188
I130
sI189
I131
sI190
I132
sI191
I133
sI192
I134
sI195
I135
sI196
I136
sI197
I137
sI201
I138
sI202
I139
sI203
I140
sI205
I141
sI206
I142
sI207
I143
sI208
I144
sI212
I145
sI213
I146
sI215
I147
sI216
I148
sI218
I149
sI219
I150
sI220
I151
sI222
I152
sI224
I153
sI225
I154
sI226
I155
sI228
I156
sI229
I157
sI230
I158
sI231
I159
sI232
I160
sI233
I161
sI234
I162
sI236
I163
sI237
I164
sI238
I165
sI240
I166
sI243
I167
sI245
I168
sI246
I169
sI248
I170
sI249
I171
sI250
I172
sI251
I173
sI253
I174
sI254
I175
sI255
I176
sI257
I177
sI259
I178
sI260
I179
sI263
I180
sI265
I181
sI266
I182
sI267
I183
sI269
I184
sI272
I185
sI273
I186
sI274
I187
sI275
I188
sI276
I189
sI279
I190
sI280
I191
sI281
I192
sI282
I193
sI283
I194
sI284
I195
sI285
I196
sI287
I197
sI288
I198
sI291
I199
sI292
I200
sI293
I201
sI294
I202
sI295
I203
sI296
I204
sI298
I205
sI300
I206
sI301
I207
sI302
I208
sI303
I209
sI304
I210
sI305
I211
sI307
I212
sI309
I213
sI312
I214
sI314
I215
sI316
I216
sI317
I217
sI318
I218
sI319
I219
sI320
I220
sI321
I221
sI323
I222
sI325
I223
sI328
I224
sI329
I225
sI330
I226
sI331
I227
sI332
I228
sI334
I229
sI335
I230
sI336
I231
sI338
I232
sI339
I233
sI340
I234
sI341
I235
sI342
I236
sI343
I237
sI344
I238
sI346
I239
sI347
I240
sI348
I241
sI349
I242
sI350
I243
sI352
I244
sI355
I245
sI356
I246
sI357
I247
sI359
I248
sI361
I249
sI362
I250
sI364
I251
sI366
I252
sI367
I253
sI368
I254
sI369
I255
sI372
I256
sI374
I257
sI375
I258
sI376
I259
sI378
I260
sI380
I261
sI382
I262
sI383
I263
sI385
I264
sI386
I265
sI388
I266
sI389
I267
sI390
I268
sI391
I269
sI392
I270
sI393
I271
sI395
I272
sI396
I273
sI397
I274
sI398
I275
sI399
I276
sI400
I277
sI401
I278
sI403
I279
sI404
I280
sI405
I281
sI406
I282
sI407
I283
sI408
I284
sI410
I285
sI411
I286
sI412
I287
sI415
I288
sI416
I289
sI419
I290
sI420
I291
sI421
I292
sI423
I293
sI424
I294
sI425
I295
sI426
I296
sI429
I297
sI430
I298
sI431
I299
sI432
I300
sI433
I301
sI434
I302
sI435
I303
sI436
I304
sI438
I305
sI439
I306
sI440
I307
sI441
I308
sI443
I309
sI445
I310
sI446
I311
sI447
I312
sI448
I313
sI449
I314
sI450
I315
sI452
I316
sI455
I317
sI457
I318
sI458
I319
sI461
I320
sI462
I321
sI463
I322
sI465
I323
sI466
I324
sI468
I325
sI469
I326
sI470
I327
sI471
I328
sI472
I329
sI474
I330
sI476
I331
sI478
I332
sI479
I333
sI480
I334
sI481
I335
sI483
I336
sI484
I337
sI485
I338
sI486
I339
sI488
I340
sI489
I341
sI490
I342
sI491
I343
sI492
I344
sI494
I345
sI495
I346
sI496
I347
sI497
I348
sI498
I349
sI499
I350
sI500
I351
sI501
I352
sI502
I353
sI503
I354
sI505
I355
sI506
I356
sI507
I357
sI508
I358
sI509
I359
sI511
I360
sI513
I361
sI514
I362
sI516
I363
sI517
I364
sI519
I365
sI520
I366
sI521
I367
sI524
I368
sI526
I369
sI527
I370
sI528
I371
sI530
I372
sI531
I373
sI532
I374
sI535
I375
sI536
I376
sI538
I377
sI539
I378
sI540
I379
sI541
I380
sI542
I381
sI544
I382
sI545
I383
sI546
I384
sI547
I385
sI549
I386
sI550
I387
sI551
I388
sI552
I389
sI553
I390
sI554
I391
sI555
I392
sI556
I393
sI557
I394
sI559
I395
sI560
I396
sI561
I397
sI563
I398
sI564
I399
sI565
I400
sI566
I401
sI567
I402
sI569
I403
sI571
I404
sI572
I405
sI573
I406
sI574
I407
sI575
I408
sI576
I409
sI578
I410
sI579
I411
sI580
I412
sI581
I413
sI582
I414
sI583
I415
sI584
I416
sI586
I417
sI587
I418
sI588
I419
sI589
I420
sI591
I421
sI592
I422
sI594
I423
sI596
I424
sI597
I425
sI599
I426
sI600
I427
sI601
I428
sI603
I429
sI604
I430
sI605
I431
sI606
I432
sI607
I433
sI608
I434
sI609
I435
sI610
I436
sI611
I437
sI613
I438
sI614
I439
sI618
I440
sI619
I441
sI620
I442
sI622
I443
sI626
I444
sI628
I445
sI630
I446
sI631
I447
sI632
I448
sI633
I449
sI634
I450
sI636
I451
sI637
I452
sI638
I453
sI639
I454
sI641
I455
sI642
I456
sI643
I457
sI644
I458
sI645
I459
sI646
I460
sI647
I461
sI649
I462
sI650
I463
sI651
I464
sI653
I465
sI655
I466
sI658
I467
sI659
I468
sI660
I469
sI661
I470
sI662
I471
sI663
I472
sI664
I473
sI666
I474
sI667
I475
sI668
I476
sI669
I477
sI670
I478
sI672
I479
sI673
I480
sI675
I481
sI676
I482
sI677
I483
sI678
I484
sI679
I485
sI681
I486
sI683
I487
sI684
I488
sI687
I489
sI688
I490
sI690
I491
sI691
I492
sI692
I493
sI693
I494
sI694
I495
sI697
I496
sI700
I497
sI701
I498
sI702
I499
sI704
I500
sI706
I501
sI707
I502
sI709
I503
sI710
I504
sI712
I505
sI714
I506
sI715
I507
sI716
I508
sI718
I509
sI719
I510
sI721
I511
sI722
I512
sI723
I513
sI724
I514
sI725
I515
sI728
I516
sI729
I517
sI730
I518
sI732
I519
sI734
I2131
sI736
I520
sI738
I521
sI740
I522
sI743
I523
sI745
I524
sI746
I525
sI747
I526
sI748
I527
sI749
I528
sI751
I529
sI752
I530
sI753
I531
sI754
I532
sI755
I533
sI756
I534
sI758
I535
sI759
I536
sI760
I537
sI761
I538
sI762
I539
sI763
I540
sI765
I541
sI766
I542
sI767
I543
sI770
I544
sI771
I545
sI772
I546
sI775
I547
sI776
I548
sI779
I549
sI781
I550
sI782
I551
sI783
I552
sI784
I553
sI785
I554
sI787
I555
sI789
I556
sI790
I557
sI791
I558
sI793
I559
sI794
I560
sI795
I561
sI797
I562
sI798
I563
sI800
I564
sI802
I565
sI803
I566
sI804
I567
sI805
I568
sI807
I569
sI808
I570
sI809
I571
sI810
I572
sI811
I573
sI812
I574
sI814
I575
sI815
I576
sI816
I577
sI817
I578
sI818
I579
sI819
I580
sI821
I581
sI822
I582
sI824
I583
sI825
I584
sI826
I585
sI827
I586
sI828
I587
sI830
I588
sI831
I589
sI833
I590
sI834
I591
sI835
I592
sI836
I593
sI838
I594
sI839
I595
sI841
I596
sI842
I597
sI843
I598
sI846
I599
sI847
I600
sI850
I601
sI851
I602
sI852
I603
sI853
I604
sI855
I605
sI856
I606
sI857
I607
sI858
I608
sI859
I609
sI861
I610
sI862
I611
sI863
I612
sI867
I613
sI868
I614
sI869
I615
sI870
I616
sI871
I617
sI873
I618
sI874
I619
sI875
I620
sI877
I621
sI878
I622
sI879
I623
sI881
I624
sI882
I625
sI883
I626
sI885
I627
sI886
I628
sI887
I629
sI888
I630
sI891
I631
sI893
I632
sI894
I633
sI895
I634
sI896
I635
sI897
I636
sI898
I637
sI899
I638
sI900
I639
sI901
I640
sI902
I641
sI903
I642
sI904
I643
sI905
I644
sI910
I645
sI911
I646
sI912
I647
sI913
I648
sI915
I649
sI916
I650
sI918
I651
sI919
I652
sI921
I653
sI922
I654
sI923
I655
sI925
I656
sI926
I657
sI928
I658
sI929
I659
sI931
I660
sI932
I661
sI933
I662
sI934
I663
sI935
I664
sI937
I665
sI938
I666
sI940
I667
sI941
I668
sI942
I669
sI944
I670
sI946
I671
sI947
I672
sI949
I673
sI950
I674
sI953
I675
sI954
I676
sI955
I677
sI956
I678
sI958
I679
sI959
I680
sI961
I681
sI962
I682
sI963
I683
sI964
I684
sI966
I685
sI967
I686
sI968
I687
sI969
I688
sI970
I689
sI971
I690
sI972
I691
sI973
I692
sI974
I693
sI975
I694
sI976
I695
sI979
I696
sI980
I697
sI981
I698
sI983
I699
sI984
I700
sI987
I701
sI989
I702
sI990
I703
sI992
I704
sI993
I705
sI994
I706
sI996
I707
sI997
I708
sI998
I709
sI999
I710
sI1001
I711
sI1002
I712
sI1005
I713
sI1007
I714
sI1008
I715
sI1011
I716
sI1012
I717
sI1013
I718
sI1014
I719
sI1016
I720
sI1018
I721
sI1019
I722
sI1021
I723
sI1022
I724
sI1024
I725
sI1025
I726
sI1026
I727
sI1028
I728
sI1030
I729
sI1031
I730
sI1033
I731
sI1037
I732
sI1038
I733
sI1040
I734
sI1042
I735
sI1044
I736
sI1045
I737
sI1046
I738
sI1047
I739
sI1048
I740
sI1049
I741
sI1050
I742
sI1052
I743
sI1053
I744
sI1055
I745
sI1056
I746
sI1057
I747
sI1060
I748
sI1061
I749
sI1062
I750
sI1064
I751
sI1065
I752
sI1066
I753
sI1067
I754
sI1068
I755
sI1069
I756
sI1070
I757
sI1071
I758
sI1073
I759
sI1074
I760
sI1075
I761
sI1076
I762
sI1077
I763
sI1080
I764
sI1081
I765
sI1082
I766
sI1083
I767
sI1084
I768
sI1086
I769
sI1087
I770
sI1089
I771
sI1090
I772
sI1092
I773
sI1094
I774
sI1095
I775
sI1097
I776
sI1098
I777
sI1099
I778
sI1101
I779
sI1103
I780
sI1104
I781
sI1106
I782
sI1107
I783
sI1109
I784
sI1110
I785
sI1113
I786
sI1114
I787
sI1116
I788
sI1118
I789
sI1119
I790
sI1120
I791
sI1121
I792
sI1122
I793
sI1123
I794
sI1124
I795
sI1128
I796
sI1130
I797
sI1131
I798
sI1133
I799
sI1134
I800
sI1136
I801
sI1137
I802
sI1138
I803
sI1140
I804
sI1142
I805
sI1143
I806
sI1145
I807
sI1146
I808
sI1147
I809
sI1148
I810
sI1149
I811
sI1150
I812
sI1151
I813
sI1153
I814
sI1154
I815
sI1155
I816
sI1156
I817
sI1157
I818
sI1158
I819
sI1159
I820
sI1161
I821
sI1163
I822
sI1165
I823
sI1167
I824
sI1168
I825
sI1169
I826
sI1171
I827
sI1172
I828
sI1174
I829
sI1175
I830
sI1176
I831
sI1178
I832
sI1180
I833
sI1182
I834
sI1183
I835
sI1184
I836
sI1185
I837
sI1186
I838
sI1187
I839
sI1188
I840
sI1190
I841
sI1191
I842
sI1194
I843
sI1196
I844
sI1197
I845
sI1199
I846
sI1200
I847
sI1201
I848
sI1202
I849
sI1203
I850
sI1205
I851
sI1206
I852
sI1207
I853
sI1209
I854
sI1210
I855
sI1211
I856
sI1213
I857
sI1215
I858
sI1216
I859
sI1217
I860
sI1218
I861
sI1220
I862
sI1221
I863
sI1223
I864
sI1226
I865
sI1227
I866
sI1229
I867
sI1230
I868
sI1231
I869
sI1232
I870
sI1234
I871
sI1235
I872
sI1236
I873
sI1237
I874
sI1241
I875
sI1242
I876
sI1244
I877
sI1246
I878
sI1247
I879
sI1249
I880
sI1250
I881
sI1251
I882
sI1252
I883
sI1253
I884
sI1254
I885
sI1255
I886
sI1258
I887
sI1259
I888
sI1260
I889
sI1262
I890
sI1263
I891
sI1265
I892
sI1266
I893
sI1267
I894
sI1268
I895
sI1270
I896
sI1272
I897
sI1273
I898
sI1274
I899
sI1275
I900
sI1276
I901
sI1277
I902
sI1278
I903
sI1279
I904
sI1280
I905
sI1281
I906
sI1282
I907
sI1284
I908
sI1286
I909
sI1288
I910
sI1289
I911
sI1290
I912
sI1291
I913
sI1294
I914
sI1295
I915
sI1296
I916
sI1297
I917
sI1299
I918
sI1301
I919
sI1302
I920
sI1304
I921
sI1305
I922
sI1306
I923
sI1307
I924
sI1310
I925
sI1313
I926
sI1314
I927
sI1316
I928
sI1317
I929
sI1318
I930
sI1320
I931
sI1321
I932
sI1322
I933
sI1324
I934
sI1325
I935
sI1327
I936
sI1329
I937
sI1330
I938
sI1331
I939
sI1333
I940
sI1334
I941
sI1336
I1683
sI1337
I942
sI1338
I943
sI1340
I944
sI1342
I945
sI1343
I946
sI1344
I947
sI1345
I948
sI1346
I949
sI1347
I950
sI1348
I951
sI1349
I952
sI1350
I953
sI1351
I954
sI1353
I955
sI1354
I956
sI1357
I957
sI1358
I958
sI1359
I959
sI1360
I960
sI1361
I961
sI1364
I962
sI1366
I963
sI1367
I964
sI1368
I965
sI1369
I966
sI1370
I967
sI1371
I968
sI1372
I969
sI1375
I970
sI1376
I971
sI1377
I972
sI1380
I973
sI1382
I974
sI1383
I975
sI1384
I976
sI1388
I977
sI1390
I978
sI1391
I979
sI1392
I980
sI1393
I981
sI1394
I982
sI1395
I983
sI1396
I984
sI1397
I985
sI1398
I986
sI1400
I987
sI1402
I988
sI1403
I989
sI1406
I990
sI1408
I991
sI1409
I992
sI1410
I993
sI1413
I994
sI1415
I995
sI1418
I996
sI1419
I997
sI1420
I998
sI1422
I999
sI1424
I1000
sI1426
I1001
sI1427
I1002
sI1428
I1003
sI1429
I1004
sI1430
I1005
sI1433
I1006
sI1436
I1007
sI1437
I1008
sI1438
I1009
sI1440
I1010
sI1442
I1011
sI1443
I1012
sI1444
I1013
sI1447
I1014
sI1448
I1015
sI1451
I1016
sI1452
I1017
sI1453
I1018
sI1454
I1019
sI1456
I1020
sI1457
I1021
sI1458
I1022
sI1459
I1023
sI1461
I1024
sI1462
I1025
sI1463
I1026
sI1465
I1027
sI1466
I1028
sI1467
I1029
sI1468
I1030
sI1470
I1031
sI1471
I1032
sI1472
I1033
sI1475
I1034
sI1477
I1035
sI1479
I1036
sI1480
I1037
sI1481
I1038
sI1482
I1039
sI1483
I1040
sI1486
I1041
sI1487
I1042
sI1488
I1043
sI1489
I1044
sI1492
I1045
sI1493
I1046
sI1495
I1047
sI1497
I1048
sI1499
I1049
sI1500
I1050
sI1502
I1051
sI1504
I1052
sI1505
I1053
sI1507
I1054
sI1508
I1055
sI1509
I1056
sI1510
I1057
sI1512
I1058
sI1514
I1059
sI1515
I1060
sI1517
I1061
sI1518
I1062
sI1519
I1063
sI1520
I1064
sI1522
I1065
sI1523
I1066
sI1524
I1067
sI1525
I1068
sI1526
I1069
sI1527
I1070
sI1529
I1071
sI1530
I1072
sI1533
I1073
sI1534
I1074
sI1535
I1075
sI1536
I1076
sI1539
I1077
sI1540
I1078
sI1541
I1079
sI1543
I1080
sI1544
I1081
sI1545
I1082
sI1546
I1083
sI1547
I1084
sI1548
I1085
sI1549
I1086
sI1551
I1087
sI1552
I1088
sI1554
I1089
sI1555
I1090
sI1556
I1091
sI1557
I1092
sI1560
I1093
sI1561
I1094
sI1562
I1095
sI1564
I1096
sI1566
I1097
sI1567
I1098
sI1568
I1099
sI1569
I1100
sI1570
I1101
sI1573
I1102
sI1574
I1103
sI1576
I1104
sI1577
I1105
sI1578
I1106
sI1580
I1107
sI1581
I1108
sI1582
I1109
sI1584
I1110
sI1585
I1111
sI1586
I1112
sI1588
I1113
sI1589
I1114
sI1590
I1115
sI1591
I1116
sI1592
I1117
sI1595
I1118
sI1596
I1119
sI1597
I1120
sI1598
I1121
sI1600
I1122
sI1601
I1123
sI1603
I1124
sI1605
I1125
sI1606
I1126
sI1607
I1127
sI1608
I1128
sI1611
I1129
sI1612
I1130
sI1613
I1131
sI1614
I1132
sI1615
I1133
sI1616
I1134
sI1618
I1135
sI1619
I1136
sI1620
I1137
sI1621
I1138
sI1622
I1139
sI1623
I1140
sI1624
I1141
sI1625
I1142
sI1626
I1143
sI1628
I1144
sI1629
I1145
sI1631
I1146
sI1632
I1147
sI1633
I1148
sI1634
I1149
sI1635
I1150
sI1637
I1151
sI1638
I1152
sI1639
I1153
sI1640
I1154
sI1641
I1155
sI1642
I1156
sI1643
I1157
sI1644
I1158
sI1646
I1159
sI1647
I1160
sI1648
I1161
sI1649
I1162
sI1651
I1163
sI1652
I1164
sI1653
I1165
sI1654
I1166
sI1656
I1167
sI1657
I1168
sI1659
I1169
sI1660
I1170
sI1661
I1171
sI1662
I1172
sI1663
I1173
sI1664
I1174
sI1666
I1175
sI1667
I1176
sI1669
I1177
sI1670
I1178
sI1671
I1179
sI1672
I1180
sI1673
I1181
sI1674
I1182
sI1675
I1183
sI1676
I1184
sI1679
I1185
sI1680
I1186
sI1681
I1187
sI1683
I1188
sI1685
I1189
sI1686
I1190
sI1687
I1191
sI1688
I1192
sI1689
I1193
sI1690
I1194
sI1691
I1195
sI1692
I1196
sI1693
I1197
sI1694
I1198
sI1696
I1199
sI1697
I1200
sI1699
I1201
sI1701
I1202
sI1702
I1203
sI1704
I1204
sI1705
I1205
sI1707
I1206
sI1708
I1207
sI1710
I1208
sI1711
I1209
sI1712
I1210
sI1713
I1211
sI1715
I1212
sI1716
I1213
sI1718
I1214
sI1719
I1215
sI1720
I1216
sI1722
I1217
sI1723
I1218
sI1725
I1219
sI1728
I1220
sI1729
I1221
sI1731
I1222
sI1736
I1223
sI1737
I1224
sI1738
I1225
sI1740
I1226
sI1741
I1227
sI1742
I1228
sI1743
I1229
sI1746
I1230
sI1747
I1231
sI1751
I1232
sI1752
I1233
sI1753
I1234
sI1754
I1235
sI1755
I1236
sI1756
I1237
sI1757
I1238
sI1759
I1239
sI1763
I1240
sI1764
I1241
sI1766
I1242
sI1768
I1243
sI1769
I1244
sI1770
I1245
sI1771
I1246
sI1772
I1247
sI1773
I1248
sI1775
I1249
sI1776
I1250
sI1778
I1251
sI1781
I1252
sI1783
I1253
sI1784
I1254
sI1786
I1255
sI1787
I1256
sI1788
I1257
sI1789
I1258
sI1790
I1259
sI1791
I1260
sI1792
I1261
sI1793
I1262
sI1795
I1263
sI1796
I1264
sI1797
I1265
sI1798
I1266
sI1799
I1267
sI1801
I1268
sI1803
I1269
sI1804
I1270
sI1806
I1271
sI1807
I1272
sI1809
I1273
sI1810
I1274
sI1811
I1275
sI1812
I1276
sI1813
I1277
sI1814
I1278
sI1816
I1279
sI1818
I1280
sI1820
I1281
sI1822
I1282
sI1823
I1283
sI1824
I1284
sI1827
I1285
sI1828
I1286
sI1829
I1287
sI1831
I1288
sI1833
I1289
sI1834
I1290
sI1835
I1291
sI1837
I1292
sI1839
I1293
sI1842
I1294
sI1843
I1295
sI1844
I1296
sI1846
I1297
sI1847
I1298
sI1848
I1299
sI1849
I1300
sI1850
I1301
sI1851
I1302
sI1854
I1303
sI1855
I1304
sI1856
I1305
sI1858
I1306
sI1859
I1307
sI1860
I1308
sI1862
I1309
sI1863
I1310
sI1864
I1311
sI1866
I1312
sI1867
I1313
sI1868
I1314
sI1870
I1315
sI1871
I1316
sI1872
I1317
sI1873
I1318
sI1875
I1319
sI1876
I1320
sI1877
I1321
sI1878
I1322
sI1879
I1323
sI1881
I1324
sI1882
I1325
sI1884
I1326
sI1886
I1327
sI1887
I1328
sI1888
I1329
sI1889
I1330
sI1891
I1331
sI1892
I1332
sI1893
I1333
sI1894
I1334
sI1895
I1335
sI1896
I1336
sI1897
I1337
sI1898
I1338
sI1899
I1339
sI1902
I1340
sI1905
I1341
sI1907
I1342
sI1908
I1343
sI1911
I1344
sI1912
I1345
sI1913
I1346
sI1914
I1347
sI1916
I1348
sI1917
I1349
sI1918
I1350
sI1920
I1351
sI1923
I1352
sI1924
I1353
sI1925
I1354
sI1926
I1355
sI1929
I1356
sI1930
I1357
sI1932
I1358
sI1934
I1359
sI1935
I1360
sI1937
I1361
sI1939
I1362
sI1941
I1363
sI1942
I1364
sI1945
I1365
sI1946
I1366
sI1947
I1367
sI1948
I1368
sI1949
I1369
sI1951
I1370
sI1952
I1371
sI1954
I1372
sI1955
I1373
sI1958
I1374
sI1959
I1375
sI1960
I1376
sI1961
I1377
sI1963
I1378
sI1964
I1379
sI1965
I1380
sI1967
I1381
sI1968
I1382
sI1970
I1383
sI1971
I1384
sI1973
I1385
sI1975
I1386
sI1977
I1387
sI1979
I1388
sI1981
I1389
sI1982
I1390
sI1983
I1391
sI1985
I1392
sI1987
I1393
sI1988
I1394
sI1989
I1395
sI1990
I1396
sI1992
I1397
sI1994
I1398
sI1995
I1399
sI1996
I1400
sI1997
I1401
sI1998
I1402
sI2000
I1403
sI2002
I1404
sI2003
I1405
sI2004
I1406
sI2005
I1407
sI2006
I1408
sI2008
I1409
sI2009
I1410
sI2010
I1411
sI2012
I1412
sI2014
I1413
sI2015
I1414
sI2018
I1415
sI2020
I1416
sI2021
I1417
sI2023
I1418
sI2024
I1419
sI2026
I1420
sI2027
I1421
sI2028
I1422
sI2030
I1423
sI2031
I1424
sI2032
I1425
sI2033
I1426
sI2034
I1427
sI2035
I1428
sI2038
I1429
sI2041
I1430
sI2042
I1431
sI2043
I1432
sI2044
I1433
sI2046
I1434
sI2047
I1435
sI2049
I1436
sI2050
I1437
sI2051
I1438
sI2052
I1439
sI2053
I1440
sI2057
I1441
sI2060
I1442
sI2061
I1443
sI2063
I1444
sI2065
I1445
sI2066
I1446
sI2068
I1447
sI2069
I1448
sI2072
I1449
sI2075
I1450
sI2076
I1451
sI2078
I1452
sI2080
I1453
sI2081
I1454
sI2082
I1455
sI2083
I1456
sI2084
I1457
sI2086
I1458
sI2087
I1459
sI2088
I1460
sI2089
I1461
sI2090
I1462
sI2093
I1463
sI2094
I1464
sI2095
I1465
sI2096
I1466
sI2098
I1467
sI2099
I1468
sI2100
I1469
sI2101
I1470
sI2102
I1471
sI2103
I1472
sI2104
I1473
sI2106
I1474
sI2107
I1475
sI2108
I1476
sI2110
I1477
sI2112
I1478
sI2113
I1479
sI2114
I1480
sI2115
I1481
sI2116
I1482
sI2118
I1483
sI2119
I1484
sI2120
I1485
sI2121
I1486
sI2123
I1487
sI2124
I1488
sI2126
I1489
sI2127
I1490
sI2128
I1491
sI2130
I1492
sI2131
I1493
sI2132
I1494
sI2134
I1495
sI2135
I1496
sI2136
I1497
sI2138
I1498
sI2140
I1499
sI2141
I1500
sI2142
I1501
sI2144
I1502
sI2145
I1503
sI2146
I1504
sI2147
I1505
sI2148
I1506
sI2150
I1507
sI2151
I1508
sI2152
I1509
sI2153
I1510
sI2155
I1511
sI2156
I1512
sI2157
I1513
sI2158
I1514
sI2159
I1515
sI2161
I1516
sI2162
I1517
sI2165
I1518
sI2166
I1519
sI2168
I1520
sI2169
I1521
sI2170
I1522
sI2171
I1523
sI2173
I1524
sI2174
I1525
sI2175
I1526
sI2176
I1527
sI2178
I1528
sI2179
I1529
sI2181
I1530
sI2183
I1531
sI2184
I1532
sI2186
I1533
sI2187
I1534
sI2189
I1535
sI2190
I1536
sI2191
I1537
sI2193
I1538
sI2195
I1539
sI2196
I1540
sI2197
I1541
sI2198
I1542
sI2199
I1543
sI2200
I1544
sI2202
I1545
sI2203
I1546
sI2206
I1547
sI2208
I1548
sI2209
I1549
sI2210
I1550
sI2211
I1551
sI2212
I1552
sI2214
I1553
sI2215
I1554
sI2217
I1555
sI2218
I1556
sI2219
I1557
sI2220
I1558
sI2221
I1559
sI2222
I1560
sI2224
I1561
sI2225
I1562
sI2226
I1563
sI2227
I1564
sI2228
I1565
sI2229
I1566
sI2230
I1567
sI2232
I1568
sI2233
I1569
sI2234
I1570
sI2236
I1571
sI2238
I1572
sI2239
I1573
sI2240
I1574
sI2242
I1575
sI2243
I1576
sI2245
I1577
sI2246
I1578
sI2248
I1579
sI2250
I1580
sI2251
I1581
sI2252
I1582
sI2253
I1583
sI2254
I1584
sI2256
I1585
sI2258
I1586
sI2259
I1587
sI2260
I1588
sI2261
I1589
sI2264
I1590
sI2265
I1591
sI2268
I1592
sI2269
I1593
sI2270
I1594
sI2272
I1595
sI2273
I1596
sI2274
I1597
sI2275
I1598
sI2276
I1599
sI2277
I1600
sI2278
I1601
sI2279
I1602
sI2280
I1603
sI2282
I1604
sI2284
I1605
sI2285
I1606
sI2286
I1607
sI2287
I1608
sI2288
I1609
sI2290
I1610
sI2291
I1611
sI2292
I1612
sI2294
I1613
sI2295
I1614
sI2296
I1615
sI2297
I1616
sI2298
I1617
sI2299
I1618
sI2301
I1619
sI2302
I1620
sI2304
I1621
sI2305
I1622
sI2307
I1623
sI2310
I1624
sI2311
I1625
sI2312
I1626
sI2313
I1627
sI2314
I1628
sI2317
I1629
sI2319
I1630
sI2320
I1631
sI2322
I1632
sI2323
I1633
sI2325
I1634
sI2326
I1635
sI2328
I1636
sI2329
I1637
sI2330
I1638
sI2332
I1639
sI2334
I1640
sI2335
I1641
sI2338
I1642
sI2339
I1643
sI2341
I1644
sI2342
I1645
sI2343
I1646
sI2344
I1647
sI2345
I1648
sI2348
I1649
sI2349
I1650
sI2350
I1651
sI2351
I1652
sI2354
I1653
sI2355
I1654
sI2356
I1655
sI2357
I1656
sI2360
I1657
sI2361
I1658
sI2363
I1659
sI2364
I1660
sI2366
I1661
sI2368
I1662
sI2369
I1663
sI2370
I1664
sI2373
I1665
sI2374
I1666
sI2375
I1667
sI2377
I1668
sI2378
I1669
sI2379
I1670
sI2380
I1671
sI2381
I1672
sI2382
I1673
sI2383
I1674
sI2384
I1675
sI2386
I1676
sI2387
I1677
sI2388
I1678
sI2390
I1679
sI2393
I1680
sI2394
I1681
sI2397
I1682
sI2399
I1684
sI2400
I1685
sI2402
I1686
sI2403
I1687
sI2405
I1688
sI2406
I1689
sI2407
I1690
sI2408
I1691
sI2409
I1692
sI2412
I1693
sI2413
I1694
sI2416
I1695
sI2417
I1696
sI2418
I1697
sI2419
I1698
sI2420
I1699
sI2421
I1700
sI2422
I1701
sI2423
I1702
sI2425
I1703
sI2426
I1704
sI2428
I1705
sI2429
I1706
sI2430
I1707
sI2433
I1708
sI2436
I1709
sI2438
I1710
sI2439
I1711
sI2441
I1712
sI2442
I1713
sI2443
I1714
sI2444
I1715
sI2446
I1716
sI2448
I1717
sI2449
I1718
sI2450
I1719
sI2452
I1720
sI2454
I1721
sI2455
I1722
sI2456
I1723
sI2458
I1724
sI2459
I1725
sI2461
I1726
sI2462
I1727
sI2463
I1728
sI2465
I1729
sI2466
I1730
sI2468
I1731
sI2469
I1732
sI2471
I1733
sI2473
I1734
sI2474
I1735
sI2476
I1736
sI2477
I1737
sI2479
I1738
sI2481
I1739
sI2483
I1740
sI2485
I1741
sI2486
I1742
sI2489
I1743
sI2490
I1744
sI2491
I1745
sI2492
I1746
sI2494
I1747
sI2495
I1748
sI2496
I1749
sI2497
I1750
sI2498
I1751
sI2500
I1752
sI2502
I1753
sI2503
I1754
sI2504
I1755
sI2505
I1756
sI2508
I1757
sI2509
I1758
sI2510
I1759
sI2511
I1760
sI2512
I1761
sI2513
I1762
sI2516
I1763
sI2519
I1764
sI2521
I1765
sI2522
I1766
sI2524
I1767
sI2525
I1768
sI2526
I1769
sI2528
I1770
sI2530
I1771
sI2533
I1772
sI2536
I1773
sI2537
I1774
sI2538
I1775
sI2541
I1776
sI2542
I1777
sI2543
I1778
sI2545
I1779
sI2546
I1780
sI2548
I1781
sI2550
I1782
sI2552
I1783
sI2553
I1784
sI2554
I1785
sI2555
I1786
sI2556
I1787
sI2558
I1788
sI2559
I1789
sI2560
I1790
sI2561
I1791
sI2562
I1792
sI2564
I1793
sI2566
I1794
sI2567
I1795
sI2568
I1796
sI2569
I1797
sI2571
I1798
sI2572
I1799
sI2573
I1800
sI2574
I1801
sI2577
I1802
sI2578
I1803
sI2579
I1804
sI2580
I1805
sI2581
I1806
sI2582
I1807
sI2584
I1808
sI2585
I1809
sI2586
I1810
sI2588
I1811
sI2589
I1812
sI2590
I1813
sI2591
I1814
sI2592
I1815
sI2596
I1816
sI2598
I1817
sI2600
I1818
sI2603
I1819
sI2604
I1820
sI2606
I1821
sI2607
I1822
sI2608
I1823
sI2610
I1824
sI2611
I1825
sI2612
I1826
sI2613
I1827
sI2615
I1828
sI2618
I1829
sI2620
I1830
sI2621
I1831
sI2623
I1832
sI2624
I1833
sI2626
I1834
sI2627
I1835
sI2628
I1836
sI2630
I1837
sI2631
I1838
sI2633
I1839
sI2636
I1840
sI2637
I1841
sI2638
I1842
sI2639
I1843
sI2640
I1844
sI2644
I1845
sI2645
I1846
sI2646
I1847
sI2647
I1848
sI2648
I1849
sI2649
I1850
sI2652
I1851
sI2653
I1852
sI2654
I1853
sI2655
I1854
sI2656
I1855
sI2658
I1856
sI2659
I1857
sI2660
I1858
sI2661
I1859
sI2662
I1860
sI2665
I1861
sI2666
I1862
sI2667
I1863
sI2669
I1864
sI2670
I1865
sI2671
I1866
sI2672
I1867
sI2673
I1868
sI2674
I1869
sI2676
I1870
sI2679
I1871
sI2680
I1872
sI2681
I1873
sI2682
I1874
sI2684
I1875
sI2686
I1876
sI2687
I1877
sI2689
I1878
sI2690
I1879
sI2691
I1880
sI2693
I1881
sI2695
I1882
sI2696
I1883
sI2698
I1884
sI2699
I1885
sI2701
I1886
sI2703
I1887
sI2705
I1888
sI2706
I1889
sI2707
I1890
sI2708
I1891
sI2710
I1892
sI2711
I1893
sI2712
I1894
sI2714
I1895
sI2715
I1896
sI2716
I1897
sI2717
I1898
sI2718
I1899
sI2719
I1900
sI2720
I1901
sI2721
I1902
sI2722
I1903
sI2723
I1904
sI2724
I1905
sI2725
I1906
sI2727
I1907
sI2728
I1908
sI2730
I1909
sI2731
I1910
sI2732
I1911
sI2733
I1912
sI2735
I1913
sI2736
I1914
sI2737
I1915
sI2738
I1916
sI2739
I1917
sI2740
I1918
sI2741
I1919
sI2742
I1920
sI2744
I1921
sI2746
I1922
sI2747
I1923
sI2748
I1924
sI2749
I1925
sI2753
I1926
sI2754
I1927
sI2756
I1928
sI2757
I1929
sI2758
I1930
sI2760
I1931
sI2761
I1932
sI2762
I1933
sI2763
I1934
sI2764
I1935
sI2765
I1936
sI2766
I1937
sI2767
I1938
sI2769
I1939
sI2772
I1940
sI2773
I1941
sI2775
I1942
sI2777
I1943
sI2779
I1944
sI2780
I1945
sI2781
I1946
sI2782
I1947
sI2783
I1948
sI2784
I1949
sI2785
I1950
sI2787
I1951
sI2788
I1952
sI2789
I1953
sI2790
I1954
sI2791
I1955
sI2793
I1956
sI2795
I1957
sI2796
I1958
sI2797
I1959
sI2798
I1960
sI2799
I1961
sI2800
I1962
sI2802
I1963
sI2803
I1964
sI2804
I1965
sI2806
I1966
sI2810
I1967
sI2812
I1968
sI2815
I1969
sI2818
I1970
sI2820
I1971
sI2821
I1972
sI2825
I1973
sI2827
I1974
sI2829
I1975
sI2831
I1976
sI2833
I1977
sI2834
I1978
sI2835
I1979
sI2836
I1980
sI2837
I1981
sI2838
I1982
sI2839
I1983
sI2840
I1984
sI2842
I1985
sI2843
I1986
sI2844
I1987
sI2845
I1988
sI2847
I1989
sI2848
I1990
sI2849
I1991
sI2852
I1992
sI2853
I1993
sI2854
I1994
sI2855
I1995
sI2856
I1996
sI2857
I1997
sI2858
I1998
sI2859
I1999
sI2860
I2000
sI2861
I2001
sI2862
I2002
sI2863
I2003
sI2867
I2004
sI2869
I2005
sI2871
I2006
sI2872
I2007
sI2874
I2008
sI2875
I2009
sI2877
I2010
sI2878
I2011
sI2881
I2012
sI2882
I2013
sI2884
I2014
sI2885
I2015
sI2887
I2016
sI2888
I2017
sI2890
I2018
sI2892
I2019
sI2895
I2020
sI2897
I2021
sI2898
I2022
sI2900
I2023
sI2904
I2024
sI2906
I2025
sI2907
I2026
sI2908
I2027
sI2909
I2028
sI2911
I2029
sI2913
I2030
sI2914
I2031
sI2915
I2032
sI2916
I2033
sI2917
I2034
sI2918
I2035
sI2919
I2036
sI2920
I2037
sI2922
I2038
sI2923
I2039
sI2925
I2040
sI2926
I2080
sI2927
I2042
sI2928
I2043
sI2930
I2044
sI2931
I2045
sI2932
I2046
sI2934
I2047
sI2935
I2048
sI2936
I2049
sI2937
I2050
sI2938
I2051
sI2939
I2052
sI2940
I2053
sI2941
I2054
sI2942
I2055
sI2943
I2056
sI2945
I2057
sI2946
I2058
sI2947
I2059
sI2948
I2060
sI2949
I2061
sI2950
I2062
sI2951
I2063
sI2952
I2064
sI2953
I2065
sI2954
I2066
sI2955
I2067
sI2956
I2068
sI2958
I2069
sI2960
I2070
sI2961
I2071
sI2962
I2072
sI2963
I2073
sI2965
I2074
sI2966
I2075
sI2967
I2076
sI2969
I2077
sI2970
I2078
sI2972
I2079
sI2974
I2719
sI2975
I2081
sI2976
I2082
sI2977
I2083
sI2978
I2084
sI2979
I2085
sI2980
I2086
sI2981
I2087
sI2982
I2088
sI2983
I2089
sI2984
I2090
sI2985
I2091
sI2986
I2092
sI2987
I2093
sI2988
I2094
sI2989
I2095
sI2991
I2096
sI2992
I2097
sI2993
I2098
sI2994
I2099
sI2995
I2100
sI2997
I2101
sI2998
I2102
sI2999
I2103
sI3004
I2104
sI3005
I2105
sI3006
I2106
sI3009
I2107
sI3010
I2108
sI3012
I2109
sI3013
I2110
sI3014
I2111
sI3016
I2112
sI3017
I2113
sI3018
I2114
sI3019
I2115
sI3020
I2116
sI3021
I2117
sI3023
I2118
sI3024
I2119
sI3025
I2120
sI3026
I2121
sI3028
I2122
sI3029
I2123
sI3030
I2124
sI3031
I2125
sI3032
I2126
sI3033
I2127
sI3034
I2128
sI3036
I2129
sI3038
I2130
sI3040
I2132
sI3042
I2133
sI3044
I2134
sI3045
I2135
sI3046
I2136
sI3048
I2137
sI3049
I2138
sI3052
I2139
sI3053
I2140
sI3054
I2141
sI3055
I2142
sI3057
I2143
sI3058
I2144
sI3060
I2145
sI3061
I2146
sI3063
I2147
sI3064
I2148
sI3065
I2149
sI3068
I2150
sI3069
I2151
sI3070
I2152
sI3071
I2153
sI3074
I2154
sI3075
I2155
sI3076
I2156
sI3078
I2157
sI3080
I2158
sI3082
I2159
sI3083
I2160
sI3084
I2161
sI3085
I2162
sI3087
I2163
sI3088
I2164
sI3091
I2165
sI3093
I2166
sI3094
I2167
sI3095
I2168
sI3098
I2169
sI3100
I2170
sI3101
I2171
sI3103
I2172
sI3104
I2173
sI3105
I2174
sI3107
I2175
sI3108
I2176
sI3110
I2177
sI3111
I2178
sI3113
I2179
sI3114
I2180
sI3115
I2181
sI3116
I2182
sI3118
I2183
sI3120
I2184
sI3122
I2185
sI3124
I2186
sI3125
I2187
sI3127
I2188
sI3128
I2189
sI3130
I2190
sI3132
I2191
sI3133
I2192
sI3134
I2193
sI3135
I2194
sI3136
I2195
sI3137
I2196
sI3138
I2197
sI3141
I2198
sI3142
I2199
sI3144
I2200
sI3145
I2201
sI3146
I2202
sI3148
I2203
sI3150
I2204
sI3151
I2205
sI3152
I2206
sI3154
I2207
sI3155
I2208
sI3156
I2209
sI3157
I2210
sI3158
I2211
sI3160
I2212
sI3162
I2213
sI3163
I2214
sI3166
I2215
sI3167
I2216
sI3168
I2217
sI3170
I2218
sI3172
I2219
sI3173
I2220
sI3176
I2221
sI3177
I2222
sI3178
I2223
sI3180
I2224
sI3182
I2225
sI3183
I2226
sI3185
I2227
sI3186
I2228
sI3188
I2229
sI3189
I2230
sI3191
I2231
sI3192
I2232
sI3193
I2233
sI3194
I2234
sI3195
I2235
sI3198
I2236
sI3200
I2237
sI3203
I2238
sI3204
I2239
sI3205
I2240
sI3207
I2241
sI3208
I2242
sI3211
I2243
sI3212
I2244
sI3213
I2245
sI3214
I2246
sI3215
I2247
sI3217
I2248
sI3219
I2249
sI3220
I2250
sI3221
I2251
sI3222
I2252
sI3223
I2253
sI3224
I2254
sI3225
I2255
sI3226
I2256
sI3228
I2257
sI3229
I2258
sI3230
I2259
sI3231
I2260
sI3232
I2261
sI3233
I2262
sI3234
I2263
sI3235
I2264
sI3236
I2265
sI3237
I2266
sI3238
I2267
sI3239
I2268
sI3240
I2269
sI3241
I2270
sI3244
I2271
sI3246
I2272
sI3247
I2273
sI3248
I2274
sI3249
I2275
sI3252
I2276
sI3254
I2277
sI3256
I2278
sI3257
I2279
sI3258
I2280
sI3260
I2281
sI3261
I2282
sI3263
I2283
sI3264
I2284
sI3265
I2285
sI3266
I2286
sI3268
I2287
sI3269
I2288
sI3271
I2289
sI3272
I2290
sI3275
I2291
sI3277
I2292
sI3279
I2293
sI3280
I2294
sI3281
I2295
sI3282
I2296
sI3284
I2297
sI3285
I2298
sI3287
I2299
sI3288
I2300
sI3289
I2301
sI3291
I2302
sI3292
I2303
sI3295
I2304
sI3297
I2305
sI3299
I2306
sI3300
I2307
sI3302
I2308
sI3304
I2309
sI3305
I2310
sI3306
I2311
sI3307
I2312
sI3309
I2313
sI3310
I2314
sI3312
I2315
sI3314
I2316
sI3315
I2317
sI3316
I2318
sI3318
I2319
sI3319
I2320
sI3322
I2321
sI3323
I2322
sI3325
I2323
sI3327
I2324
sI3328
I2325
sI3330
I2326
sI3332
I2327
sI3333
I2328
sI3334
I2329
sI3336
I2330
sI3338
I2331
sI3339
I2332
sI3340
I2333
sI3342
I2334
sI3344
I2335
sI3346
I2336
sI3347
I2337
sI3348
I2338
sI3350
I2339
sI3352
I2340
sI3353
I2341
sI3356
I2342
sI3358
I2343
sI3360
I2344
sI3361
I2345
sI3362
I2346
sI3364
I2347
sI3367
I2348
sI3371
I2349
sI3372
I2350
sI3375
I2351
sI3377
I2352
sI3379
I2353
sI3380
I2354
sI3381
I2355
sI3382
I2356
sI3383
I2357
sI3384
I2358
sI3385
I2359
sI3387
I2360
sI3388
I2361
sI3389
I2362
sI3391
I2363
sI3393
I2364
sI3394
I2365
sI3397
I2366
sI3400
I2367
sI3401
I2368
sI3402
I2369
sI3404
I2370
sI3405
I2371
sI3406
I2372
sI3408
I2373
sI3410
I2374
sI3412
I2375
sI3415
I2376
sI3418
I2377
sI3419
I2378
sI3421
I2379
sI3423
I2380
sI3424
I2381
sI3426
I2382
sI3427
I2383
sI3429
I2384
sI3430
I2385
sI3431
I2386
sI3432
I2387
sI3433
I2388
sI3435
I2389
sI3436
I2390
sI3437
I2391
sI3438
I2392
sI3439
I2393
sI3442
I2394
sI3443
I2395
sI3444
I2396
sI3445
I2397
sI3447
I2398
sI3448
I2399
sI3449
I2400
sI3450
I2401
sI3451
I2402
sI3452
I2403
sI3454
I2404
sI3456
I2405
sI3457
I2406
sI3459
I2407
sI3461
I2408
sI3462
I2409
sI3463
I2410
sI3464
I2411
sI3465
I2412
sI3467
I2413
sI3468
I2414
sI3469
I2415
sI3470
I2416
sI3472
I2417
sI3474
I2418
sI3475
I2419
sI3477
I2420
sI3478
I2421
sI3480
I2422
sI3481
I2423
sI3483
I2424
sI3484
I2425
sI3485
I2426
sI3486
I2427
sI3487
I2428
sI3488
I2429
sI3489
I2430
sI3491
I2431
sI3492
I2432
sI3494
I2433
sI3495
I2434
sI3497
I2435
sI3500
I2436
sI3501
I2437
sI3502
I2438
sI3504
I2439
sI3506
I3558
sI3508
I2440
sI3509
I2441
sI3512
I2442
sI3513
I2443
sI3514
I2444
sI3515
I2445
sI3516
I2446
sI3519
I2447
sI3520
I2448
sI3521
I2449
sI3523
I2450
sI3524
I2451
sI3526
I2452
sI3527
I2453
sI3528
I2454
sI3530
I2455
sI3531
I2456
sI3532
I2457
sI3534
I2458
sI3535
I2459
sI3537
I2460
sI3538
I2461
sI3539
I2462
sI3540
I2463
sI3542
I2464
sI3543
I2465
sI3545
I2466
sI3546
I2467
sI3547
I2468
sI3549
I2469
sI3552
I2470
sI3553
I2471
sI3554
I2472
sI3556
I2473
sI3559
I2474
sI3562
I2475
sI3563
I2476
sI3564
I2477
sI3566
I2478
sI3569
I2479
sI3570
I2480
sI3571
I2481
sI3573
I2482
sI3575
I2483
sI3578
I2484
sI3580
I2485
sI3581
I2486
sI3582
I2487
sI3583
I2488
sI3584
I2489
sI3585
I2490
sI3586
I2491
sI3588
I2492
sI3589
I2493
sI3592
I2494
sI3595
I2495
sI3596
I2496
sI3597
I2497
sI3598
I2498
sI3600
I2499
sI3601
I2500
sI3602
I2501
sI3604
I2502
sI3605
I2503
sI3606
I2504
sI3607
I2505
sI3608
I2506
sI3609
I2507
sI3610
I2508
sI3613
I2509
sI3614
I2510
sI3616
I2511
sI3617
I2512
sI3618
I2513
sI3619
I2514
sI3621
I2515
sI3622
I2516
sI3624
I2517
sI3625
I2518
sI3626
I2519
sI3629
I2520
sI3630
I2521
sI3631
I2522
sI3632
I2523
sI3633
I2524
sI3635
I2525
sI3636
I2526
sI3638
I2527
sI3640
I2528
sI3643
I2529
sI3644
I2530
sI3646
I2531
sI3648
I2532
sI3651
I2533
sI3654
I2534
sI3655
I2535
sI3656
I2536
sI3657
I2537
sI3658
I2538
sI3659
I2539
sI3662
I2540
sI3663
I2541
sI3665
I2542
sI3666
I2543
sI3667
I2544
sI3668
I2545
sI3670
I2546
sI3671
I2547
sI3673
I2548
sI3674
I2549
sI3675
I2550
sI3677
I2551
sI3679
I2552
sI3680
I2553
sI3682
I2554
sI3683
I2555
sI3684
I2556
sI3685
I2557
sI3686
I2558
sI3688
I2559
sI3690
I2560
sI3693
I2561
sI3694
I2562
sI3696
I2563
sI3699
I2564
sI3701
I2565
sI3702
I2566
sI3703
I2567
sI3704
I2568
sI3707
I2569
sI3708
I2570
sI3709
I2571
sI3711
I2572
sI3712
I2573
sI3713
I2574
sI3715
I2575
sI3718
I2576
sI3719
I2577
sI3720
I2578
sI3722
I2579
sI3725
I2580
sI3726
I2581
sI3727
I2582
sI3729
I2583
sI3730
I2584
sI3731
I2585
sI3732
I2586
sI3733
I2587
sI3735
I2588
sI3737
I2589
sI3739
I2590
sI3741
I2591
sI3742
I2592
sI3744
I2593
sI3745
I2594
sI3746
I2595
sI3749
I2596
sI3750
I2597
sI3751
I2598
sI3752
I2599
sI3754
I2600
sI3755
I2601
sI3757
I2602
sI3759
I2603
sI3760
I2604
sI3761
I2605
sI3762
I2606
sI3763
I2607
sI3765
I2608
sI3766
I2609
sI3767
I2610
sI3770
I2611
sI3771
I2612
sI3772
I2613
sI3773
I2614
sI3774
I2615
sI3775
I2616
sI3777
I2617
sI3778
I2618
sI3779
I2619
sI3780
I2620
sI3781
I2621
sI3783
I2622
sI3784
I2623
sI3785
I2624
sI3786
I2625
sI3787
I2626
sI3788
I2627
sI3789
I2628
sI3791
I2629
sI3792
I2630
sI3793
I2631
sI3794
I2632
sI3795
I2633
sI3798
I2634
sI3799
I2635
sI3800
I2636
sI3801
I2637
sI3802
I2638
sI3804
I2639
sI3805
I2640
sI3806
I2641
sI3807
I2642
sI3808
I2643
sI3809
I2644
sI3810
I2645
sI3813
I2646
sI3814
I2647
sI3816
I2648
sI3817
I2649
sI3818
I2650
sI3819
I2651
sI3821
I2652
sI3822
I2653
sI3824
I2654
sI3826
I2655
sI3828
I2656
sI3831
I2657
sI3832
I2658
sI3833
I2659
sI3834
I2660
sI3836
I2661
sI3837
I2662
sI3838
I2663
sI3839
I3829
sI3840
I2664
sI3841
I2665
sI3843
I2666
sI3844
I2667
sI3847
I2668
sI3848
I2669
sI3849
I2670
sI3851
I2671
sI3852
I2672
sI3853
I2673
sI3854
I2674
sI3855
I2675
sI3859
I2676
sI3860
I2677
sI3862
I2678
sI3863
I2679
sI3865
I2680
sI3866
I2681
sI3867
I2682
sI3868
I2683
sI3870
I2684
sI3871
I2685
sI3872
I2686
sI3874
I2687
sI3876
I2688
sI3877
I2689
sI3879
I2690
sI3881
I2691
sI3882
I2692
sI3884
I2693
sI3885
I2694
sI3887
I2695
sI3888
I2696
sI3889
I2697
sI3890
I2698
sI3891
I2699
sI3892
I2700
sI3894
I2701
sI3897
I2702
sI3898
I2703
sI3899
I2704
sI3901
I2705
sI3902
I2706
sI3903
I2707
sI3904
I2708
sI3905
I2709
sI3907
I2710
sI3909
I2711
sI3910
I2712
sI3911
I2713
sI3913
I2714
sI3914
I2715
sI3915
I2716
sI3916
I2717
sI3917
I2718
sI3921
I2720
sI3922
I2721
sI3924
I2722
sI3926
I2723
sI3928
I2724
sI3929
I2725
sI3930
I2726
sI3931
I2727
sI3932
I2728
sI3933
I2729
sI3936
I2730
sI3939
I2731
sI3940
I2732
sI3941
I2733
sI3942
I2734
sI3944
I2735
sI3947
I2736
sI3948
I2737
sI3949
I2738
sI3950
I2739
sI3951
I2740
sI3953
I2741
sI3954
I2742
sI3956
I2743
sI3958
I2744
sI3960
I2745
sI3961
I2746
sI3962
I2747
sI3963
I2748
sI3964
I2749
sI3965
I2750
sI3966
I2751
sI3967
I2752
sI3969
I2753
sI3970
I2754
sI3971
I2755
sI3973
I2756
sI3974
I2757
sI3975
I2758
sI3977
I2759
sI3979
I2760
sI3980
I2761
sI3982
I2762
sI3983
I2763
sI3985
I2764
sI3986
I2765
sI3987
I2766
sI3988
I2767
sI3989
I2768
sI3992
I2769
sI3993
I2770
sI3994
I2771
sI3995
I2772
sI3997
I2773
sI3998
I2774
sI3999
I2775
sI4000
I2776
sI4001
I2777
sI4002
I2778
sI4003
I2779
sI4004
I2780
sI4006
I2781
sI4008
I2782
sI4009
I2783
sI4012
I2784
sI4013
I2785
sI4014
I2786
sI4015
I2787
sI4017
I2788
sI4018
I2789
sI4020
I2790
sI4021
I2791
sI4022
I2792
sI4024
I2793
sI4025
I2794
sI4026
I2795
sI4028
I2796
sI4029
I2797
sI4031
I2798
sI4032
I2799
sI4034
I2800
sI4036
I2801
sI4038
I2802
sI4040
I2803
sI4041
I2804
sI4042
I2805
sI4043
I2806
sI4044
I2807
sI4046
I2808
sI4047
I2809
sI4048
I2810
sI4050
I2811
sI4051
I2812
sI4053
I2813
sI4054
I2814
sI4057
I2815
sI4058
I2816
sI4059
I2817
sI4061
I2818
sI4062
I2819
sI4063
I2820
sI4065
I2821
sI4066
I2822
sI4068
I2823
sI4069
I2824
sI4070
I2825
sI4071
I2826
sI4074
I2827
sI4075
I2828
sI4076
I2829
sI4078
I2830
sI4080
I2831
sI4081
I2832
sI4082
I2833
sI4083
I2834
sI4085
I2835
sI4087
I2836
sI4088
I2837
sI4090
I2838
sI4092
I2839
sI4093
I2840
sI4094
I2841
sI4095
I2842
sI4096
I2843
sI4097
I2844
sI4099
I2845
sI4100
I2846
sI4101
I2847
sI4102
I2848
sI4104
I2849
sI4106
I2850
sI4107
I2851
sI4108
I2852
sI4109
I2853
sI4110
I2854
sI4111
I2855
sI4114
I2856
sI4116
I2857
sI4119
I2858
sI4121
I2859
sI4122
I2860
sI4123
I2861
sI4125
I2862
sI4126
I2863
sI4127
I2864
sI4128
I2865
sI4130
I2866
sI4132
I2867
sI4133
I2868
sI4134
I2869
sI4136
I2870
sI4137
I2871
sI4138
I2872
sI4140
I2873
sI4142
I2874
sI4143
I2875
sI4144
I2876
sI4145
I2877
sI4147
I2878
sI4148
I2879
sI4150
I2880
sI4151
I2881
sI4153
I2882
sI4156
I2883
sI4159
I2884
sI4161
I2885
sI4163
I2886
sI4164
I2887
sI4165
I2888
sI4166
I2889
sI4169
I2890
sI4171
I2891
sI4172
I2892
sI4174
I2893
sI4175
I2894
sI4176
I2895
sI4178
I2896
sI4180
I2897
sI4181
I2898
sI4182
I2899
sI4184
I2900
sI4185
I2901
sI4187
I2902
sI4188
I2903
sI4189
I2904
sI4191
I2905
sI4192
I2906
sI4193
I2907
sI4195
I2908
sI4196
I2909
sI4197
I2910
sI4199
I2911
sI4200
I2912
sI4201
I2913
sI4202
I2914
sI4203
I2915
sI4204
I2916
sI4207
I2917
sI4208
I2918
sI4209
I2919
sI4211
I2920
sI4212
I2921
sI4214
I2922
sI4215
I2923
sI4216
I2924
sI4217
I2925
sI4218
I2926
sI4219
I2927
sI4221
I2928
sI4223
I2929
sI4224
I2930
sI4226
I2931
sI4227
I2932
sI4229
I2933
sI4230
I2934
sI4232
I2935
sI4234
I2936
sI4235
I2937
sI4237
I2938
sI4238
I2939
sI4239
I2940
sI4241
I2941
sI4242
I2942
sI4244
I2943
sI4245
I2944
sI4247
I2945
sI4249
I2946
sI4251
I2947
sI4253
I2948
sI4254
I2949
sI4256
I2950
sI4257
I2951
sI4258
I2952
sI4259
I2953
sI4260
I2954
sI4261
I2955
sI4262
I2956
sI4265
I2957
sI4266
I2958
sI4268
I2959
sI4270
I2960
sI4271
I2961
sI4273
I2962
sI4275
I2963
sI4276
I2964
sI4277
I2965
sI4280
I2966
sI4282
I2967
sI4284
I2968
sI4285
I2969
sI4287
I2970
sI4289
I2971
sI4290
I2972
sI4293
I2973
sI4294
I2974
sI4295
I2975
sI4296
I2976
sI4298
I2977
sI4299
I2978
sI4300
I2979
sI4301
I2980
sI4302
I2981
sI4303
I2982
sI4304
I2983
sI4306
I2984
sI4307
I2985
sI4308
I2986
sI4311
I2987
sI4312
I2988
sI4314
I2989
sI4316
I2990
sI4317
I2991
sI4319
I2992
sI4320
I2993
sI4323
I2994
sI4324
I2995
sI4325
I2996
sI4327
I2997
sI4328
I2998
sI4330
I2999
sI4332
I3000
sI4333
I3001
sI4334
I3002
sI4336
I3003
sI4337
I3004
sI4339
I3005
sI4340
I3006
sI4342
I3007
sI4343
I3008
sI4344
I3009
sI4345
I3010
sI4347
I3011
sI4348
I3012
sI4350
I3013
sI4351
I3014
sI4353
I3015
sI4355
I3016
sI4356
I3017
sI4358
I3018
sI4359
I3019
sI4361
I3020
sI4363
I3021
sI4364
I3022
sI4365
I3023
sI4366
I3024
sI4367
I3025
sI4370
I3026
sI4371
I3027
sI4372
I3028
sI4373
I3029
sI4375
I3030
sI4376
I3031
sI4377
I3032
sI4378
I3033
sI4379
I3034
sI4381
I3035
sI4382
I3036
sI4384
I3037
sI4386
I3038
sI4388
I3039
sI4389
I3040
sI4390
I3041
sI4392
I3042
sI4393
I3043
sI4394
I3044
sI4396
I3045
sI4398
I3046
sI4399
I3047
sI4400
I3048
sI4402
I3049
sI4403
I3050
sI4405
I3051
sI4406
I3052
sI4407
I3053
sI4411
I3054
sI4412
I3055
sI4413
I3056
sI4415
I3057
sI4416
I3058
sI4418
I3059
sI4420
I3060
sI4421
I3061
sI4422
I3062
sI4423
I3063
sI4424
I3064
sI4426
I3065
sI4428
I3066
sI4429
I3067
sI4430
I3068
sI4431
I3069
sI4432
I3070
sI4436
I3071
sI4437
I3072
sI4438
I3073
sI4439
I3074
sI4440
I3075
sI4441
I3076
sI4442
I3077
sI4443
I3078
sI4444
I3079
sI4447
I3080
sI4448
I3081
sI4449
I3082
sI4452
I3083
sI4454
I3084
sI4456
I3085
sI4457
I3086
sI4458
I3087
sI4459
I3088
sI4460
I3089
sI4461
I3090
sI4463
I3091
sI4465
I3092
sI4466
I3093
sI4468
I3094
sI4471
I3095
sI4473
I3096
sI4474
I3097
sI4475
I3098
sI4477
I3099
sI4478
I3100
sI4479
I3101
sI4481
I3102
sI4482
I3103
sI4484
I3104
sI4485
I3105
sI4487
I3106
sI4488
I3107
sI4491
I3108
sI4492
I3109
sI4493
I3110
sI4494
I3111
sI4496
I3112
sI4498
I3113
sI4499
I3114
sI4500
I3115
sI4501
I3116
sI4503
I3117
sI4505
I3118
sI4506
I3119
sI4507
I3120
sI4509
I3121
sI4512
I3122
sI4513
I3123
sI4514
I3124
sI4516
I3125
sI4517
I3126
sI4518
I3127
sI4520
I3128
sI4521
I3129
sI4522
I3130
sI4523
I3131
sI4524
I3132
sI4526
I3133
sI4527
I3134
sI4528
I3135
sI4529
I3136
sI4530
I3137
sI4532
I3138
sI4533
I3139
sI4534
I3140
sI4535
I3141
sI4536
I3142
sI4538
I3143
sI4540
I3144
sI4543
I3145
sI4544
I3146
sI4545
I3147
sI4547
I3148
sI4548
I3149
sI4551
I3150
sI4552
I3151
sI4553
I3152
sI4554
I3153
sI4556
I3154
sI4557
I3155
sI4559
I3156
sI4560
I3157
sI4561
I3158
sI4562
I3159
sI4563
I3160
sI4564
I3161
sI4566
I3162
sI4567
I3163
sI4568
I3164
sI4570
I3165
sI4572
I3166
sI4573
I3167
sI4574
I3168
sI4577
I3169
sI4578
I3170
sI4580
I3171
sI4582
I3172
sI4584
I3173
sI4585
I3174
sI4586
I3175
sI4587
I3176
sI4588
I3177
sI4589
I3178
sI4590
I3179
sI4591
I3180
sI4592
I3181
sI4594
I3182
sI4595
I3183
sI4596
I3184
sI4597
I3185
sI4599
I3186
sI4600
I3187
sI4603
I3188
sI4604
I3189
sI4605
I3190
sI4606
I3191
sI4607
I3192
sI4608
I3193
sI4610
I3194
sI4611
I3195
sI4612
I3196
sI4614
I3197
sI4615
I3198
sI4616
I3199
sI4617
I3200
sI4618
I3201
sI4621
I3202
sI4622
I3203
sI4624
I3204
sI4625
I3205
sI4626
I3206
sI4628
I3207
sI4630
I3208
sI4631
I3209
sI4632
I3210
sI4634
I3211
sI4635
I3212
sI4636
I3213
sI4638
I3214
sI4639
I3215
sI4640
I3216
sI4642
I3217
sI4643
I3218
sI4645
I3219
sI4646
I3220
sI4647
I3221
sI4648
I3222
sI4650
I3223
sI4651
I3224
sI4652
I3225
sI4655
I3226
sI4656
I3227
sI4657
I3228
sI4659
I3229
sI4660
I3230
sI4661
I3231
sI4662
I3232
sI4663
I3233
sI4664
I3234
sI4666
I3235
sI4668
I3236
sI4669
I3237
sI4670
I3238
sI4671
I3239
sI4673
I3240
sI4674
I3241
sI4675
I3242
sI4677
I3243
sI4678
I3244
sI4679
I3245
sI4680
I3246
sI4682
I3247
sI4683
I3248
sI4684
I3249
sI4686
I3250
sI4688
I3251
sI4689
I3252
sI4692
I3253
sI4694
I3254
sI4695
I3255
sI4696
I3256
sI4697
I3257
sI4699
I3258
sI4700
I3259
sI4703
I3260
sI4704
I3261
sI4706
I3262
sI4708
I3263
sI4709
I3264
sI4710
I3265
sI4711
I3266
sI4713
I3267
sI4714
I3268
sI4715
I3269
sI4718
I3270
sI4720
I3271
sI4721
I3272
sI4722
I3273
sI4723
I3274
sI4725
I3275
sI4727
I3276
sI4728
I3277
sI4729
I3278
sI4730
I3279
sI4731
I3280
sI4734
I3281
sI4735
I3282
sI4736
I3283
sI4737
I3284
sI4738
I3285
sI4739
I3286
sI4742
I3287
sI4744
I3288
sI4746
I3289
sI4747
I3290
sI4749
I3291
sI4750
I3292
sI4752
I3293
sI4753
I3294
sI4754
I3295
sI4756
I3296
sI4757
I3297
sI4759
I3298
sI4760
I3299
sI4761
I3300
sI4762
I3301
sI4765
I3302
sI4766
I3303
sI4768
I3304
sI4770
I3305
sI4772
I3306
sI4773
I3307
sI4775
I3308
sI4776
I3309
sI4777
I3310
sI4779
I3311
sI4781
I3312
sI4782
I3313
sI4783
I3314
sI4785
I3315
sI4787
I3316
sI4788
I3317
sI4790
I3318
sI4792
I3319
sI4793
I3320
sI4795
I3321
sI4797
I3322
sI4798
I3323
sI4799
I3324
sI4800
I3325
sI4801
I3326
sI4803
I3327
sI4805
I3328
sI4806
I3329
sI4807
I3330
sI4808
I3331
sI4809
I3332
sI4810
I3333
sI4812
I3334
sI4816
I3335
sI4817
I3336
sI4819
I3337
sI4820
I3338
sI4822
I3339
sI4823
I3340
sI4824
I3341
sI4825
I3342
sI4827
I3343
sI4828
I3344
sI4829
I3345
sI4830
I3346
sI4831
I3347
sI4832
I3348
sI4835
I3349
sI4836
I3350
sI4837
I3351
sI4838
I3352
sI4839
I3353
sI4841
I3354
sI4842
I3355
sI4843
I3356
sI4844
I3357
sI4845
I3358
sI4846
I3359
sI4848
I3360
sI4849
I3361
sI4852
I3362
sI4853
I3363
sI4855
I3364
sI4856
I3365
sI4857
I3366
sI4858
I3367
sI4861
I3368
sI4862
I3369
sI4863
I3370
sI4864
I3371
sI4866
I3372
sI4868
I3373
sI4869
I3374
sI4870
I3375
sI4873
I3376
sI4874
I3377
sI4875
I3378
sI4876
I3379
sI4877
I3380
sI4878
I3381
sI4879
I3382
sI4881
I3383
sI4882
I3384
sI4884
I3385
sI4886
I3386
sI4888
I3387
sI4889
I3388
sI4890
I3389
sI4892
I3390
sI4893
I3391
sI4896
I3392
sI4898
I3393
sI4899
I3394
sI4900
I3395
sI4901
I3396
sI4902
I3397
sI4904
I3398
sI4905
I3399
sI4906
I3400
sI4907
I3401
sI4908
I3402
sI4910
I3403
sI4912
I3404
sI4913
I3405
sI4915
I3406
sI4916
I3407
sI4917
I3408
sI4920
I3409
sI4923
I3410
sI4924
I3411
sI4925
I3412
sI4927
I3413
sI4928
I3414
sI4929
I3415
sI4930
I3416
sI4931
I3417
sI4933
I3418
sI4934
I3419
sI4937
I3420
sI4938
I3421
sI4941
I3422
sI4942
I3423
sI4943
I3424
sI4944
I3425
sI4946
I3426
sI4948
I3427
sI4949
I3428
sI4950
I3429
sI4952
I3430
sI4953
I3431
sI4954
I3432
sI4956
I3433
sI4959
I3434
sI4960
I3435
sI4963
I3436
sI4964
I3437
sI4965
I3438
sI4966
I3439
sI4968
I3440
sI4969
I3441
sI4971
I3442
sI4972
I3443
sI4975
I3444
sI4976
I3445
sI4978
I3446
sI4979
I3447
sI4980
I3448
sI4981
I3449
sI4982
I3450
sI4983
I3451
sI4985
I3452
sI4986
I3453
sI4989
I3454
sI4990
I3455
sI4991
I3456
sI4992
I3457
sI4993
I3458
sI4994
I3459
sI4995
I3460
sI4996
I3461
sI4997
I3462
sI4998
I3463
sI4999
I3464
sI5000
I3465
sI5001
I3466
sI5003
I3467
sI5004
I3468
sI5006
I3469
sI5008
I3470
sI5011
I3471
sI5013
I3472
sI5014
I3473
sI5015
I3474
sI5016
I3475
sI5017
I3476
sI5019
I3477
sI5021
I3478
sI5023
I3479
sI5026
I3480
sI5027
I3481
sI5030
I3482
sI5031
I3483
sI5032
I3484
sI5034
I3485
sI5035
I3486
sI5038
I3487
sI5039
I3488
sI5040
I3489
sI5041
I3490
sI5043
I3491
sI5045
I3492
sI5046
I3493
sI5047
I3494
sI5048
I3495
sI5049
I3496
sI5050
I3497
sI5053
I3498
sI5054
I3499
sI5055
I3500
sI5056
I3501
sI5057
I3502
sI5060
I3503
sI5061
I3504
sI5062
I3505
sI5063
I3506
sI5064
I3507
sI5067
I3508
sI5068
I3509
sI5070
I3510
sI5071
I3511
sI5072
I3512
sI5073
I3513
sI5074
I3514
sI5076
I3515
sI5078
I3516
sI5080
I3517
sI5081
I3518
sI5082
I3519
sI5084
I3520
sI5085
I3521
sI5086
I3522
sI5087
I3523
sI5088
I3524
sI5089
I3525
sI5090
I3526
sI5092
I3527
sI5093
I3528
sI5094
I3529
sI5096
I3530
sI5097
I3531
sI5098
I3532
sI5100
I3533
sI5101
I3534
sI5102
I3535
sI5104
I3536
sI5105
I3537
sI5106
I3538
sI5108
I3539
sI5110
I3540
sI5111
I3541
sI5112
I3542
sI5113
I3543
sI5114
I3544
sI5115
I3545
sI5116
I3546
sI5118
I3547
sI5119
I3548
sI5120
I3549
sI5123
I3550
sI5124
I3551
sI5125
I3552
sI5127
I3553
sI5128
I3554
sI5129
I3555
sI5130
I3556
sI5133
I3557
sI5135
I3559
sI5138
I3560
sI5139
I3561
sI5141
I3562
sI5143
I3563
sI5144
I3564
sI5146
I3565
sI5147
I3566
sI5148
I3567
sI5149
I3568
sI5150
I3569
sI5152
I3570
sI5153
I3571
sI5154
I3572
sI5155
I3573
sI5156
I3574
sI5158
I3575
sI5159
I3576
sI5160
I3577
sI5162
I3578
sI5163
I3579
sI5165
I3580
sI5167
I3581
sI5168
I3582
sI5170
I3583
sI5171
I3584
sI5172
I3585
sI5174
I3586
sI5177
I3587
sI5179
I3588
sI5180
I3589
sI5181
I3590
sI5183
I3591
sI5185
I3592
sI5186
I3593
sI5188
I3594
sI5190
I3595
sI5191
I3596
sI5192
I3597
sI5193
I3598
sI5194
I3599
sI5195
I3600
sI5198
I3601
sI5199
I3602
sI5200
I3603
sI5201
I3604
sI5202
I3605
sI5203
I3606
sI5205
I3607
sI5208
I3608
sI5211
I3609
sI5212
I3610
sI5213
I3611
sI5215
I3612
sI5216
I3613
sI5218
I3614
sI5220
I3615
sI5221
I3616
sI5222
I3617
sI5224
I3618
sI5225
I3619
sI5226
I3620
sI5228
I3621
sI5230
I3622
sI5231
I3623
sI5232
I3624
sI5233
I3625
sI5235
I3626
sI5237
I3627
sI5239
I3628
sI5240
I3629
sI5241
I3630
sI5242
I3631
sI5243
I3632
sI5244
I3633
sI5245
I3634
sI5246
I3635
sI5247
I3636
sI5248
I3637
sI5249
I3638
sI5250
I3639
sI5251
I3640
sI5252
I3641
sI5253
I3642
sI5254
I3643
sI5255
I3644
sI5256
I3645
sI5257
I3646
sI5259
I3647
sI5261
I3648
sI5263
I3649
sI5264
I3650
sI5266
I3651
sI5267
I3652
sI5268
I3653
sI5269
I3654
sI5271
I3655
sI5272
I3656
sI5273
I3657
sI5274
I3658
sI5275
I3659
sI5277
I3660
sI5279
I3661
sI5280
I3662
sI5281
I3663
sI5282
I3664
sI5283
I3665
sI5285
I3666
sI5286
I3667
sI5288
I3668
sI5289
I3669
sI5290
I3670
sI5292
I3671
sI5293
I3672
sI5295
I3673
sI5296
I3674
sI5297
I3675
sI5298
I3676
sI5299
I3677
sI5301
I3678
sI5303
I3679
sI5304
I3680
sI5305
I3681
sI5306
I3682
sI5308
I3683
sI5309
I3684
sI5311
I3685
sI5312
I3686
sI5313
I3687
sI5315
I3688
sI5316
I3689
sI5318
I3690
sI5319
I3691
sI5320
I3692
sI5321
I3693
sI5322
I3694
sI5323
I3695
sI5325
I3696
sI5326
I3697
sI5327
I3698
sI5328
I3699
sI5329
I3700
sI5331
I3701
sI5332
I3702
sI5333
I3703
sI5335
I3704
sI5336
I3705
sI5337
I3706
sI5338
I3707
sI5341
I3708
sI5342
I3709
sI5345
I3710
sI5347
I3711
sI5349
I3712
sI5351
I3713
sI5352
I3714
sI5353
I3715
sI5354
I3716
sI5356
I3717
sI5357
I3718
sI5360
I3719
sI5361
I3720
sI5364
I3721
sI5365
I3722
sI5367
I3723
sI5368
I3724
sI5369
I3725
sI5372
I3726
sI5373
I3727
sI5374
I3728
sI5375
I3729
sI5376
I3730
sI5378
I3731
sI5379
I3732
sI5381
I3733
sI5383
I3734
sI5386
I3735
sI5387
I3736
sI5388
I3737
sI5391
I3738
sI5392
I3739
sI5393
I3740
sI5394
I3741
sI5396
I3742
sI5397
I3743
sI5398
I3744
sI5400
I3745
sI5402
I3746
sI5403
I3747
sI5405
I3748
sI5407
I3749
sI5409
I3750
sI5410
I3751
sI5411
I3752
sI5412
I3753
sI5414
I3754
sI5416
I3755
sI5417
I3756
sI5418
I3757
sI5419
I3758
sI5420
I3759
sI5422
I3760
sI5423
I3761
sI5424
I3762
sI5426
I3763
sI5427
I3764
sI5428
I3765
sI5430
I3766
sI5431
I3767
sI5433
I3768
sI5436
I3769
sI5437
I3770
sI5438
I3771
sI5440
I3772
sI5442
I3773
sI5443
I3774
sI5445
I3775
sI5446
I3776
sI5447
I3777
sI5448
I3778
sI5449
I3779
sI5450
I3780
sI5451
I3781
sI5452
I3782
sI5453
I3783
sI5454
I3784
sI5456
I3785
sI5457
I3786
sI5458
I3787
sI5459
I3788
sI5460
I3789
sI5461
I3790
sI5462
I3791
sI5465
I3792
sI5466
I3793
sI5467
I3794
sI5469
I3795
sI5470
I3796
sI5471
I3797
sI5472
I3798
sI5474
I3799
sI5475
I3800
sI5476
I3801
sI5479
I3802
sI5480
I3803
sI5483
I3804
sI5484
I3805
sI5485
I3806
sI5486
I3807
sI5487
I3808
sI5490
I3809
sI5491
I3810
sI5492
I3811
sI5493
I3812
sI5494
I3813
sI5495
I3814
sI5496
I3815
sI5497
I3816
sI5498
I3817
sI5499
I3818
sI5502
I3819
sI5503
I3820
sI5504
I3821
sI5508
I3822
sI5509
I3823
sI5510
I3824
sI5511
I3825
sI5512
I3826
sI5513
I3827
sI5515
I3828
sI5517
I3830
sI5518
I3831
sI5520
I3832
sI5521
I3833
sI5523
I3834
sI5524
I3835
sI5525
I3836
sI5527
I3837
sI5528
I3838
sI5530
I3839
sI5531
I3840
sI5534
I3841
sI5535
I3842
sI5536
I3843
sI5538
I3844
sI5540
I3845
sI5541
I3846
sI5543
I3847
sI5545
I3848
sI5548
I3849
sI5549
I3850
sI5550
I3851
sI5551
I3852
sI5552
I3853
sI5556
I3854
sI5558
I3855
sI5561
I3856
sI5563
I3857
sI5567
I3858
sI5571
I3859
sI5572
I3860
sI5574
I3861
sI5577
I3862
sI5578
I3863
sI5579
I3864
sI5580
I3865
sI5582
I3866
sI5583
I3867
sI5584
I3868
sI5586
I3869
sI5587
I3870
sI5589
I3871
sI5591
I3872
sI5592
I3873
sI5593
I3874
sI5594
I3875
sI5596
I3876
sI5597
I3877
sI5599
I3878
sI5600
I3879
sI5601
I3880
sI5602
I3881
sI5603
I3882
sI5605
I3883
sI5607
I3884
sI5610
I3885
sI5611
I3886
sI5612
I3887
sI5614
I3888
sI5616
I3889
sI5617
I3890
sI5618
I3891
sI5619
I3892
sI5621
I3893
sI5622
I3894
sI5624
I3895
sI5627
I3896
sI5629
I3897
sI5630
I3898
sI5633
I3899
s.